

Microchip Technology PIC18 LITE Macro Assembler V1.36 build -262312587 
                                                                                               Wed Feb 17 20:37:02 2016

Microchip Technology Omniscient Code Generator v1.36 (Free mode) build 201601150325
     1                           	processor	18F2550
     2                           	fnconf	rparam,??,?,0
     3                           	opt	pw 120
     4                           	opt	lm
     5                           	psect	cinit,global,reloc=2,class=CODE,delta=1
     6                           	psect	bssCOMRAM,global,class=COMRAM,space=1,delta=1
     7                           	psect	cstackCOMRAM,global,class=COMRAM,space=1,delta=1
     8                           	psect	text0,global,reloc=2,class=CODE,delta=1
     9                           	psect	text1,global,reloc=2,class=CODE,delta=1
    10                           	psect	text2,global,reloc=2,class=CODE,delta=1
    11                           	psect	text3,global,reloc=2,class=CODE,delta=1
    12                           	psect	text4,global,reloc=2,class=CODE,delta=1
    13                           	psect	intcode,global,reloc=2,class=CODE,delta=1
    14                           	psect	intcode_body,global,reloc=2,class=CODE,delta=1
    15                           	psect	intsave_regs,global,class=BIGRAM,space=1,delta=1
    16                           	psect	rparam,global,class=COMRAM,space=1,delta=1
    17                           	psect	temp,global,ovrld,common,class=COMRAM,space=1,delta=1
    18  0000                     _ADCON0	set	4034
    19  0000                     _ADCON0bits	set	4034
    20  0000                     _ADCON1bits	set	4033
    21  0000                     _ADCON2	set	4032
    22  0000                     _ADCON2bits	set	4032
    23  0000                     _ADRESH	set	4036
    24  0000                     _ADRESL	set	4035
    25  0000                     _LATBbits	set	3978
    26  0000                     _LATCbits	set	3979
    27  0000                     _PORTBbits	set	3969
    28  0000                     _SSPCON1bits	set	4038
    29  0000                     _TRISAbits	set	3986
    30  0000                     _TRISBbits	set	3987
    31  0000                     _TRISCbits	set	3988
    32                           
    33                           ; #config settings
    34  0000                     
    35                           	psect	cinit
    36  00019E                     __pcinit:
    37                           	opt stack 0
    38  00019E                     start_initialization:
    39                           	opt stack 0
    40  00019E                     __initialization:
    41                           	opt stack 0
    42                           
    43                           ; Clear objects allocated to COMRAM (2 bytes)
    44  00019E  6A12               	clrf	(__pbssCOMRAM+1)& (0+255),c
    45  0001A0  6A11               	clrf	__pbssCOMRAM& (0+255),c
    46  0001A2                     end_of_initialization:
    47                           	opt stack 0
    48  0001A2                     __end_of__initialization:
    49                           	opt stack 0
    50  0001A2  9013               	bcf	int$flags,0,c	;clear compiler interrupt flag (level 1)
    51  0001A4  9213               	bcf	int$flags,1,c	;clear compiler interrupt flag (level 2)
    52  0001A6  0E00               	movlw	low (__Lmediumconst shr (0+16))
    53  0001A8  6EF8               	movwf	tblptru,c
    54  0001AA  0100               	movlb	0
    55  0001AC  EFD8  F000         	goto	_main	;jump to C main() function
    56                           tblptru	equ	0xFF8
    57                           
    58                           	psect	bssCOMRAM
    59  000011                     __pbssCOMRAM:
    60                           	opt stack 0
    61  000011                     _c:
    62                           	opt stack 0
    63  000011                     	ds	2
    64                           tblptru	equ	0xFF8
    65                           
    66                           	psect	cstackCOMRAM
    67  000001                     __pcstackCOMRAM:
    68                           	opt stack 0
    69  000001                     ??_SYS_InterruptHigh:
    70                           
    71                           ; 1 bytes @ 0x0
    72  000001                     	ds	14
    73  00000F                     LED_Toggle@led:
    74                           	opt stack 0
    75  00000F                     LED_Enable@led:
    76                           	opt stack 0
    77                           
    78                           ; 1 bytes @ 0xE
    79  00000F                     	ds	1
    80  000010                     ??_APP_tick:
    81                           
    82                           ; 1 bytes @ 0xF
    83  000010                     	ds	1
    84  000011                     tblptru	equ	0xFF8
    85                           
    86                           ; 1 bytes @ 0x10
    87 ;;
    88 ;;Main: autosize = 0, tempsize = 0, incstack = 0, save=0
    89 ;;
    90 ;; *************** function _main *****************
    91 ;; Defined at:
    92 ;;		line 5 in file "../src/slave1/main.c"
    93 ;; Parameters:    Size  Location     Type
    94 ;;		None
    95 ;; Auto vars:     Size  Location     Type
    96 ;;		None
    97 ;; Return value:  Size  Location     Type
    98 ;;                  1    wreg      void 
    99 ;; Registers used:
   100 ;;		wreg, status,2, status,0, cstack
   101 ;; Tracked objects:
   102 ;;		On entry : 0/0
   103 ;;		On exit  : 0/0
   104 ;;		Unchanged: 0/0
   105 ;; Data sizes:     COMRAM   BANK0   BANK1   BANK2   BANK3   BANK4   BANK5   BANK6   BANK7
   106 ;;      Params:         0       0       0       0       0       0       0       0       0
   107 ;;      Locals:         0       0       0       0       0       0       0       0       0
   108 ;;      Temps:          0       0       0       0       0       0       0       0       0
   109 ;;      Totals:         0       0       0       0       0       0       0       0       0
   110 ;;Total ram usage:        0 bytes
   111 ;; Hardware stack levels required when called:    3
   112 ;; This function calls:
   113 ;;		_APP_tick
   114 ;;		_SYSTEM_Initialize
   115 ;; This function is called by:
   116 ;;		Startup code after reset
   117 ;; This function uses a non-reentrant model
   118 ;;
   119                           
   120                           	psect	text0
   121  0001B0                     __ptext0:
   122                           	opt stack 0
   123  0001B0                     _main:
   124                           	opt stack 28
   125                           
   126                           ;main.c: 6: SYSTEM_Initialize();
   127                           
   128                           ;incstack = 0
   129  0001B0  ECBD  F000         	call	_SYSTEM_Initialize	;wreg free
   130  0001B4                     l128:
   131                           
   132                           ;main.c: 9: ;
   133                           ;main.c: 11: APP_tick();
   134  0001B4  EC0D  F000         	call	_APP_tick	;wreg free
   135  0001B8  D7FD               	goto	l128
   136  0001BA                     __end_of_main:
   137                           	opt stack 0
   138                           tblptru	equ	0xFF8
   139                           
   140 ;; *************** function _SYSTEM_Initialize *****************
   141 ;; Defined at:
   142 ;;		line 65 in file "../system_config/system.c"
   143 ;; Parameters:    Size  Location     Type
   144 ;;		None
   145 ;; Auto vars:     Size  Location     Type
   146 ;;		None
   147 ;; Return value:  Size  Location     Type
   148 ;;                  1    wreg      void 
   149 ;; Registers used:
   150 ;;		wreg, status,2, status,0, cstack
   151 ;; Tracked objects:
   152 ;;		On entry : 0/0
   153 ;;		On exit  : 0/0
   154 ;;		Unchanged: 0/0
   155 ;; Data sizes:     COMRAM   BANK0   BANK1   BANK2   BANK3   BANK4   BANK5   BANK6   BANK7
   156 ;;      Params:         0       0       0       0       0       0       0       0       0
   157 ;;      Locals:         0       0       0       0       0       0       0       0       0
   158 ;;      Temps:          0       0       0       0       0       0       0       0       0
   159 ;;      Totals:         0       0       0       0       0       0       0       0       0
   160 ;;Total ram usage:        0 bytes
   161 ;; Hardware stack levels used:    1
   162 ;; Hardware stack levels required when called:    2
   163 ;; This function calls:
   164 ;;		_LED_Enable
   165 ;; This function is called by:
   166 ;;		_main
   167 ;; This function uses a non-reentrant model
   168 ;;
   169                           
   170                           	psect	text1
   171  00017A                     __ptext1:
   172                           	opt stack 0
   173  00017A                     _SYSTEM_Initialize:
   174                           	opt stack 28
   175                           
   176                           ;system.c: 66: LED_Enable(LED_D1);
   177                           
   178                           ;incstack = 0
   179  00017A  0E01               	movlw	1
   180  00017C  EC87  F000         	call	_LED_Enable
   181                           
   182                           ;system.c: 67: LED_Enable(LED_D2);
   183  000180  0E02               	movlw	2
   184  000182  EC87  F000         	call	_LED_Enable
   185                           
   186                           ;system.c: 77: SSPCON1bits.SSPM0 = 1;
   187  000186  80C6               	bsf	4038,0,c	;volatile
   188                           
   189                           ;system.c: 78: SSPCON1bits.SSPM1 = 0;
   190  000188  92C6               	bcf	4038,1,c	;volatile
   191                           
   192                           ;system.c: 79: SSPCON1bits.SSPM2 = 1;
   193  00018A  84C6               	bsf	4038,2,c	;volatile
   194                           
   195                           ;system.c: 80: SSPCON1bits.SSPM3 = 0;
   196  00018C  96C6               	bcf	4038,3,c	;volatile
   197                           
   198                           ;system.c: 81: SSPCON1bits.CKP = 0;
   199  00018E  98C6               	bcf	4038,4,c	;volatile
   200                           
   201                           ;system.c: 83: LATCbits.LATC7 = 0;
   202  000190  9E8B               	bcf	3979,7,c	;volatile
   203                           
   204                           ;system.c: 84: LATBbits.LATB1 = 0;
   205  000192  928A               	bcf	3978,1,c	;volatile
   206                           
   207                           ;system.c: 86: TRISCbits.TRISC7 = 0;
   208  000194  9E94               	bcf	3988,7,c	;volatile
   209                           
   210                           ;system.c: 87: TRISBbits.TRISB1 = 1;
   211  000196  8293               	bsf	3987,1,c	;volatile
   212                           
   213                           ;system.c: 88: TRISAbits.TRISA5 = 1;
   214  000198  8A92               	bsf	3986,5,c	;volatile
   215                           
   216                           ;system.c: 90: SSPCON1bits.SSPEN = 1;
   217  00019A  8AC6               	bsf	4038,5,c	;volatile
   218  00019C  0012               	return		;funcret
   219  00019E                     __end_of_SYSTEM_Initialize:
   220                           	opt stack 0
   221                           tblptru	equ	0xFF8
   222                           
   223 ;; *************** function _LED_Enable *****************
   224 ;; Defined at:
   225 ;;		line 257 in file "../bsp/leds.c"
   226 ;; Parameters:    Size  Location     Type
   227 ;;  led             1    wreg     enum E2
   228 ;; Auto vars:     Size  Location     Type
   229 ;;  led             1   14[COMRAM] enum E2
   230 ;; Return value:  Size  Location     Type
   231 ;;                  1    wreg      void 
   232 ;; Registers used:
   233 ;;		wreg, status,2, status,0
   234 ;; Tracked objects:
   235 ;;		On entry : 0/0
   236 ;;		On exit  : 0/0
   237 ;;		Unchanged: 0/0
   238 ;; Data sizes:     COMRAM   BANK0   BANK1   BANK2   BANK3   BANK4   BANK5   BANK6   BANK7
   239 ;;      Params:         0       0       0       0       0       0       0       0       0
   240 ;;      Locals:         1       0       0       0       0       0       0       0       0
   241 ;;      Temps:          0       0       0       0       0       0       0       0       0
   242 ;;      Totals:         1       0       0       0       0       0       0       0       0
   243 ;;Total ram usage:        1 bytes
   244 ;; Hardware stack levels used:    1
   245 ;; Hardware stack levels required when called:    1
   246 ;; This function calls:
   247 ;;		Nothing
   248 ;; This function is called by:
   249 ;;		_SYSTEM_Initialize
   250 ;; This function uses a non-reentrant model
   251 ;;
   252                           
   253                           	psect	text2
   254  00010E                     __ptext2:
   255                           	opt stack 0
   256  00010E                     _LED_Enable:
   257                           	opt stack 28
   258                           
   259                           ;incstack = 0
   260                           ;LED_Enable@led stored from wreg
   261  00010E  6E0F               	movwf	LED_Enable@led,c
   262                           
   263                           ;leds.c: 259: switch(led)
   264  000110  D008               	goto	l768
   265  000112                     l115:
   266                           
   267                           ;leds.c: 262: TRISBbits.TRISB0 = 0;
   268  000112  9093               	bcf	3987,0,c	;volatile
   269                           
   270                           ;leds.c: 263: break;
   271  000114  0012               	return	
   272  000116                     l117:
   273                           
   274                           ;leds.c: 266: TRISBbits.TRISB2 = 0;
   275  000116  9493               	bcf	3987,2,c	;volatile
   276                           
   277                           ;leds.c: 267: break;
   278  000118  0012               	return	
   279  00011A                     l118:
   280                           
   281                           ;leds.c: 270: TRISBbits.TRISB2 = 0;
   282  00011A  9493               	bcf	3987,2,c	;volatile
   283                           
   284                           ;leds.c: 271: break;
   285  00011C  0012               	return	
   286  00011E                     l119:
   287                           
   288                           ;leds.c: 274: TRISBbits.TRISB3 = 0;
   289  00011E  9693               	bcf	3987,3,c	;volatile
   290                           
   291                           ;leds.c: 279: }
   292                           
   293                           ;leds.c: 278: break;
   294                           
   295                           ;leds.c: 277: case LED_NONE:
   296                           
   297                           ;leds.c: 275: break;
   298  000120  0012               	return	
   299  000122                     l768:
   300  000122  500F               	movf	LED_Enable@led,w,c
   301                           
   302                           ; Switch size 1, requested type "space"
   303                           ; Number of cases is 5, Range of values is 0 to 4
   304                           ; switch strategies available:
   305                           ; Name         Instructions Cycles
   306                           ; simple_byte           16     9 (average)
   307                           ;	Chosen strategy is simple_byte
   308  000124  0A00               	xorlw	0	; case 0
   309  000126  B4D8               	btfsc	status,2,c
   310  000128  0012               	return	
   311  00012A  0A01               	xorlw	1	; case 1
   312  00012C  B4D8               	btfsc	status,2,c
   313  00012E  D7F1               	goto	l115
   314  000130  0A03               	xorlw	3	; case 2
   315  000132  B4D8               	btfsc	status,2,c
   316  000134  D7F0               	goto	l117
   317  000136  0A01               	xorlw	1	; case 3
   318  000138  B4D8               	btfsc	status,2,c
   319  00013A  D7EF               	goto	l118
   320  00013C  0A07               	xorlw	7	; case 4
   321  00013E  A4D8               	btfss	status,2,c
   322  000140  0012               	return	
   323  000142  D7ED               	goto	l119
   324  000144                     __end_of_LED_Enable:
   325                           	opt stack 0
   326                           tblptru	equ	0xFF8
   327                           status	equ	0xFD8
   328                           
   329 ;; *************** function _APP_tick *****************
   330 ;; Defined at:
   331 ;;		line 17 in file "../src/slave1/slave1.c"
   332 ;; Parameters:    Size  Location     Type
   333 ;;		None
   334 ;; Auto vars:     Size  Location     Type
   335 ;;		None
   336 ;; Return value:  Size  Location     Type
   337 ;;                  1    wreg      void 
   338 ;; Registers used:
   339 ;;		wreg, status,2, status,0, cstack
   340 ;; Tracked objects:
   341 ;;		On entry : 0/0
   342 ;;		On exit  : 0/0
   343 ;;		Unchanged: 0/0
   344 ;; Data sizes:     COMRAM   BANK0   BANK1   BANK2   BANK3   BANK4   BANK5   BANK6   BANK7
   345 ;;      Params:         0       0       0       0       0       0       0       0       0
   346 ;;      Locals:         0       0       0       0       0       0       0       0       0
   347 ;;      Temps:          1       0       0       0       0       0       0       0       0
   348 ;;      Totals:         1       0       0       0       0       0       0       0       0
   349 ;;Total ram usage:        1 bytes
   350 ;; Hardware stack levels used:    1
   351 ;; Hardware stack levels required when called:    2
   352 ;; This function calls:
   353 ;;		_LED_Toggle
   354 ;; This function is called by:
   355 ;;		_main
   356 ;; This function uses a non-reentrant model
   357 ;;
   358                           
   359                           	psect	text3
   360  00001A                     __ptext3:
   361                           	opt stack 0
   362  00001A                     _APP_tick:
   363                           	opt stack 28
   364                           
   365                           ;slave1.c: 19: LED_Toggle(LED_D2);
   366                           
   367                           ;incstack = 0
   368  00001A  0E02               	movlw	2
   369  00001C  ECA2  F000         	call	_LED_Toggle
   370                           
   371                           ;slave1.c: 20: _delay((unsigned long)((100)*(4000000/4000.0)));
   372  000020  0E82               	movlw	130
   373  000022  6E10               	movwf	??_APP_tick& (0+255),c
   374  000024  0EDE               	movlw	222
   375  000026                     u47:
   376  000026  2EE8               	decfsz	wreg,f,c
   377  000028  D7FE               	goto	u47
   378  00002A  2E10               	decfsz	??_APP_tick& (0+255),f,c
   379  00002C  D7FC               	goto	u47
   380                           
   381                           ;slave1.c: 21: _delay((unsigned long)((100)*(4000000/4000.0)));
   382  00002E  0E82               	movlw	130
   383  000030  6E10               	movwf	??_APP_tick& (0+255),c
   384  000032  0EDE               	movlw	222
   385  000034                     u57:
   386  000034  2EE8               	decfsz	wreg,f,c
   387  000036  D7FE               	goto	u57
   388  000038  2E10               	decfsz	??_APP_tick& (0+255),f,c
   389  00003A  D7FC               	goto	u57
   390                           
   391                           ;slave1.c: 22: _delay((unsigned long)((100)*(4000000/4000.0)));
   392  00003C  0E82               	movlw	130
   393  00003E  6E10               	movwf	??_APP_tick& (0+255),c
   394  000040  0EDE               	movlw	222
   395  000042                     u67:
   396  000042  2EE8               	decfsz	wreg,f,c
   397  000044  D7FE               	goto	u67
   398  000046  2E10               	decfsz	??_APP_tick& (0+255),f,c
   399  000048  D7FC               	goto	u67
   400                           
   401                           ;slave1.c: 23: _delay((unsigned long)((100)*(4000000/4000.0)));
   402  00004A  0E82               	movlw	130
   403  00004C  6E10               	movwf	??_APP_tick& (0+255),c
   404  00004E  0EDE               	movlw	222
   405  000050                     u77:
   406  000050  2EE8               	decfsz	wreg,f,c
   407  000052  D7FE               	goto	u77
   408  000054  2E10               	decfsz	??_APP_tick& (0+255),f,c
   409  000056  D7FC               	goto	u77
   410                           
   411                           ;slave1.c: 24: _delay((unsigned long)((100)*(4000000/4000.0)));
   412  000058  0E82               	movlw	130
   413  00005A  6E10               	movwf	??_APP_tick& (0+255),c
   414  00005C  0EDE               	movlw	222
   415  00005E                     u87:
   416  00005E  2EE8               	decfsz	wreg,f,c
   417  000060  D7FE               	goto	u87
   418  000062  2E10               	decfsz	??_APP_tick& (0+255),f,c
   419  000064  D7FC               	goto	u87
   420                           
   421                           ;slave1.c: 25: _delay((unsigned long)((100)*(4000000/4000.0)));
   422  000066  0E82               	movlw	130
   423  000068  6E10               	movwf	??_APP_tick& (0+255),c
   424  00006A  0EDE               	movlw	222
   425  00006C                     u97:
   426  00006C  2EE8               	decfsz	wreg,f,c
   427  00006E  D7FE               	goto	u97
   428  000070  2E10               	decfsz	??_APP_tick& (0+255),f,c
   429  000072  D7FC               	goto	u97
   430                           
   431                           ;slave1.c: 26: _delay((unsigned long)((100)*(4000000/4000.0)));
   432  000074  0E82               	movlw	130
   433  000076  6E10               	movwf	??_APP_tick& (0+255),c
   434  000078  0EDE               	movlw	222
   435  00007A                     u107:
   436  00007A  2EE8               	decfsz	wreg,f,c
   437  00007C  D7FE               	goto	u107
   438  00007E  2E10               	decfsz	??_APP_tick& (0+255),f,c
   439  000080  D7FC               	goto	u107
   440                           
   441                           ;slave1.c: 27: _delay((unsigned long)((100)*(4000000/4000.0)));
   442  000082  0E82               	movlw	130
   443  000084  6E10               	movwf	??_APP_tick& (0+255),c
   444  000086  0EDE               	movlw	222
   445  000088                     u117:
   446  000088  2EE8               	decfsz	wreg,f,c
   447  00008A  D7FE               	goto	u117
   448  00008C  2E10               	decfsz	??_APP_tick& (0+255),f,c
   449  00008E  D7FC               	goto	u117
   450                           
   451                           ;slave1.c: 28: _delay((unsigned long)((100)*(4000000/4000.0)));
   452  000090  0E82               	movlw	130
   453  000092  6E10               	movwf	??_APP_tick& (0+255),c
   454  000094  0EDE               	movlw	222
   455  000096                     u127:
   456  000096  2EE8               	decfsz	wreg,f,c
   457  000098  D7FE               	goto	u127
   458  00009A  2E10               	decfsz	??_APP_tick& (0+255),f,c
   459  00009C  D7FC               	goto	u127
   460  00009E  0012               	return		;funcret
   461  0000A0                     __end_of_APP_tick:
   462                           	opt stack 0
   463                           tblptru	equ	0xFF8
   464                           wreg	equ	0xFE8
   465                           status	equ	0xFD8
   466                           
   467 ;; *************** function _LED_Toggle *****************
   468 ;; Defined at:
   469 ;;		line 178 in file "../bsp/leds.c"
   470 ;; Parameters:    Size  Location     Type
   471 ;;  led             1    wreg     enum E2
   472 ;; Auto vars:     Size  Location     Type
   473 ;;  led             1   14[COMRAM] enum E2
   474 ;; Return value:  Size  Location     Type
   475 ;;                  1    wreg      void 
   476 ;; Registers used:
   477 ;;		wreg, status,2, status,0
   478 ;; Tracked objects:
   479 ;;		On entry : 0/0
   480 ;;		On exit  : 0/0
   481 ;;		Unchanged: 0/0
   482 ;; Data sizes:     COMRAM   BANK0   BANK1   BANK2   BANK3   BANK4   BANK5   BANK6   BANK7
   483 ;;      Params:         0       0       0       0       0       0       0       0       0
   484 ;;      Locals:         1       0       0       0       0       0       0       0       0
   485 ;;      Temps:          0       0       0       0       0       0       0       0       0
   486 ;;      Totals:         1       0       0       0       0       0       0       0       0
   487 ;;Total ram usage:        1 bytes
   488 ;; Hardware stack levels used:    1
   489 ;; Hardware stack levels required when called:    1
   490 ;; This function calls:
   491 ;;		Nothing
   492 ;; This function is called by:
   493 ;;		_APP_tick
   494 ;; This function uses a non-reentrant model
   495 ;;
   496                           
   497                           	psect	text4
   498  000144                     __ptext4:
   499                           	opt stack 0
   500  000144                     _LED_Toggle:
   501                           	opt stack 28
   502                           
   503                           ;incstack = 0
   504                           ;LED_Toggle@led stored from wreg
   505  000144  6E0F               	movwf	LED_Toggle@led,c
   506                           
   507                           ;leds.c: 180: switch(led)
   508  000146  D008               	goto	l762
   509  000148                     l95:
   510                           
   511                           ;leds.c: 183: LATBbits.LATB0 ^= 1;
   512  000148  708A               	btg	3978,0,c	;volatile
   513                           
   514                           ;leds.c: 184: break;
   515  00014A  0012               	return	
   516  00014C                     l97:
   517                           
   518                           ;leds.c: 187: LATBbits.LATB2 ^= 1;
   519  00014C  748A               	btg	3978,2,c	;volatile
   520                           
   521                           ;leds.c: 188: break;
   522  00014E  0012               	return	
   523  000150                     l98:
   524                           
   525                           ;leds.c: 191: LATBbits.LATB2 ^= 1;
   526  000150  748A               	btg	3978,2,c	;volatile
   527                           
   528                           ;leds.c: 192: break;
   529  000152  0012               	return	
   530  000154                     l99:
   531                           
   532                           ;leds.c: 195: LATBbits.LATB3 ^= 1;
   533  000154  768A               	btg	3978,3,c	;volatile
   534                           
   535                           ;leds.c: 200: }
   536                           
   537                           ;leds.c: 199: break;
   538                           
   539                           ;leds.c: 198: case LED_NONE:
   540                           
   541                           ;leds.c: 196: break;
   542  000156  0012               	return	
   543  000158                     l762:
   544  000158  500F               	movf	LED_Toggle@led,w,c
   545                           
   546                           ; Switch size 1, requested type "space"
   547                           ; Number of cases is 5, Range of values is 0 to 4
   548                           ; switch strategies available:
   549                           ; Name         Instructions Cycles
   550                           ; simple_byte           16     9 (average)
   551                           ;	Chosen strategy is simple_byte
   552  00015A  0A00               	xorlw	0	; case 0
   553  00015C  B4D8               	btfsc	status,2,c
   554  00015E  0012               	return	
   555  000160  0A01               	xorlw	1	; case 1
   556  000162  B4D8               	btfsc	status,2,c
   557  000164  D7F1               	goto	l95
   558  000166  0A03               	xorlw	3	; case 2
   559  000168  B4D8               	btfsc	status,2,c
   560  00016A  D7F0               	goto	l97
   561  00016C  0A01               	xorlw	1	; case 3
   562  00016E  B4D8               	btfsc	status,2,c
   563  000170  D7EF               	goto	l98
   564  000172  0A07               	xorlw	7	; case 4
   565  000174  A4D8               	btfss	status,2,c
   566  000176  0012               	return	
   567  000178  D7ED               	goto	l99
   568  00017A                     __end_of_LED_Toggle:
   569                           	opt stack 0
   570                           tblptru	equ	0xFF8
   571                           wreg	equ	0xFE8
   572                           status	equ	0xFD8
   573                           
   574 ;; *************** function _SYS_InterruptHigh *****************
   575 ;; Defined at:
   576 ;;		line 138 in file "../system_config/system.c"
   577 ;; Parameters:    Size  Location     Type
   578 ;;		None
   579 ;; Auto vars:     Size  Location     Type
   580 ;;		None
   581 ;; Return value:  Size  Location     Type
   582 ;;                  1    wreg      void 
   583 ;; Registers used:
   584 ;;		None
   585 ;; Tracked objects:
   586 ;;		On entry : 0/0
   587 ;;		On exit  : 0/0
   588 ;;		Unchanged: 0/0
   589 ;; Data sizes:     COMRAM   BANK0   BANK1   BANK2   BANK3   BANK4   BANK5   BANK6   BANK7
   590 ;;      Params:         0       0       0       0       0       0       0       0       0
   591 ;;      Locals:         0       0       0       0       0       0       0       0       0
   592 ;;      Temps:         14       0       0       0       0       0       0       0       0
   593 ;;      Totals:        14       0       0       0       0       0       0       0       0
   594 ;;Total ram usage:       14 bytes
   595 ;; Hardware stack levels used:    1
   596 ;; This function calls:
   597 ;;		Nothing
   598 ;; This function is called by:
   599 ;;		Interrupt level 2
   600 ;; This function uses a non-reentrant model
   601 ;;
   602                           
   603                           	psect	intcode
   604  000008                     __pintcode:
   605                           	opt stack 0
   606  000008                     _SYS_InterruptHigh:
   607                           	opt stack 28
   608                           
   609                           ;incstack = 0
   610  000008  8213               	bsf	btemp,1,c	;set compiler interrupt flag (level 2)
   611  00000A  CFFA F001          	movff	pclath,??_SYS_InterruptHigh
   612  00000E  CFFB F002          	movff	pclatu,??_SYS_InterruptHigh+1
   613  000012  ED50  F000         	call	int_func,f	;refresh shadow registers
   614                           pclatu	equ	0xFFB
   615                           pclath	equ	0xFFA
   616                           tblptru	equ	0xFF8
   617                           wreg	equ	0xFE8
   618                           status	equ	0xFD8
   619                           
   620                           	psect	intcode_body
   621  0000A0                     __pintcode_body:
   622                           	opt stack 28
   623  0000A0                     int_func:
   624                           	opt stack 28
   625  0000A0  0006               	pop		; remove dummy address from shadow register refresh
   626  0000A2  CFE9 F003          	movff	fsr0l,??_SYS_InterruptHigh+2
   627  0000A6  CFEA F004          	movff	fsr0h,??_SYS_InterruptHigh+3
   628  0000AA  CFE1 F005          	movff	fsr1l,??_SYS_InterruptHigh+4
   629  0000AE  CFE2 F006          	movff	fsr1h,??_SYS_InterruptHigh+5
   630  0000B2  CFD9 F007          	movff	fsr2l,??_SYS_InterruptHigh+6
   631  0000B6  CFDA F008          	movff	fsr2h,??_SYS_InterruptHigh+7
   632  0000BA  CFF3 F009          	movff	prodl,??_SYS_InterruptHigh+8
   633  0000BE  CFF4 F00A          	movff	prodh,??_SYS_InterruptHigh+9
   634  0000C2  CFF6 F00B          	movff	tblptrl,??_SYS_InterruptHigh+10
   635  0000C6  CFF7 F00C          	movff	tblptrh,??_SYS_InterruptHigh+11
   636  0000CA  CFF8 F00D          	movff	tblptru,??_SYS_InterruptHigh+12
   637  0000CE  CFF5 F00E          	movff	tablat,??_SYS_InterruptHigh+13
   638  0000D2  C00E  FFF5         	movff	??_SYS_InterruptHigh+13,tablat
   639  0000D6  C00D  FFF8         	movff	??_SYS_InterruptHigh+12,tblptru
   640  0000DA  C00C  FFF7         	movff	??_SYS_InterruptHigh+11,tblptrh
   641  0000DE  C00B  FFF6         	movff	??_SYS_InterruptHigh+10,tblptrl
   642  0000E2  C00A  FFF4         	movff	??_SYS_InterruptHigh+9,prodh
   643  0000E6  C009  FFF3         	movff	??_SYS_InterruptHigh+8,prodl
   644  0000EA  C008  FFDA         	movff	??_SYS_InterruptHigh+7,fsr2h
   645  0000EE  C007  FFD9         	movff	??_SYS_InterruptHigh+6,fsr2l
   646  0000F2  C006  FFE2         	movff	??_SYS_InterruptHigh+5,fsr1h
   647  0000F6  C005  FFE1         	movff	??_SYS_InterruptHigh+4,fsr1l
   648  0000FA  C004  FFEA         	movff	??_SYS_InterruptHigh+3,fsr0h
   649  0000FE  C003  FFE9         	movff	??_SYS_InterruptHigh+2,fsr0l
   650  000102  C002  FFFB         	movff	??_SYS_InterruptHigh+1,pclatu
   651  000106  C001  FFFA         	movff	??_SYS_InterruptHigh,pclath
   652  00010A  9213               	bcf	btemp,1,c	;clear compiler interrupt flag (level 2)
   653  00010C  0011               	retfie		f
   654  00010E                     __end_of_SYS_InterruptHigh:
   655                           	opt stack 0
   656  0000                     pclatu	equ	0xFFB
   657                           pclath	equ	0xFFA
   658                           tblptru	equ	0xFF8
   659                           tblptrh	equ	0xFF7
   660                           tblptrl	equ	0xFF6
   661                           tablat	equ	0xFF5
   662                           prodh	equ	0xFF4
   663                           prodl	equ	0xFF3
   664                           fsr0h	equ	0xFEA
   665                           fsr0l	equ	0xFE9
   666                           wreg	equ	0xFE8
   667                           fsr1h	equ	0xFE2
   668                           fsr1l	equ	0xFE1
   669                           fsr2h	equ	0xFDA
   670                           fsr2l	equ	0xFD9
   671                           status	equ	0xFD8
   672                           pclatu	equ	0xFFB
   673                           pclath	equ	0xFFA
   674                           tblptru	equ	0xFF8
   675                           tblptrh	equ	0xFF7
   676                           tblptrl	equ	0xFF6
   677                           tablat	equ	0xFF5
   678                           prodh	equ	0xFF4
   679                           prodl	equ	0xFF3
   680                           fsr0h	equ	0xFEA
   681                           fsr0l	equ	0xFE9
   682                           wreg	equ	0xFE8
   683                           fsr1h	equ	0xFE2
   684                           fsr1l	equ	0xFE1
   685                           fsr2h	equ	0xFDA
   686                           fsr2l	equ	0xFD9
   687                           status	equ	0xFD8
   688                           
   689                           	psect	rparam
   690  0000                     pclatu	equ	0xFFB
   691                           pclath	equ	0xFFA
   692                           tblptru	equ	0xFF8
   693                           tblptrh	equ	0xFF7
   694                           tblptrl	equ	0xFF6
   695                           tablat	equ	0xFF5
   696                           prodh	equ	0xFF4
   697                           prodl	equ	0xFF3
   698                           fsr0h	equ	0xFEA
   699                           fsr0l	equ	0xFE9
   700                           wreg	equ	0xFE8
   701                           fsr1h	equ	0xFE2
   702                           fsr1l	equ	0xFE1
   703                           fsr2h	equ	0xFDA
   704                           fsr2l	equ	0xFD9
   705                           status	equ	0xFD8
   706                           
   707                           	psect	temp
   708  000013                     btemp:
   709                           	opt stack 0
   710  000013                     	ds	1
   711  0000                     int$flags	set	btemp
   712                           pclatu	equ	0xFFB
   713                           pclath	equ	0xFFA
   714                           tblptru	equ	0xFF8
   715                           tblptrh	equ	0xFF7
   716                           tblptrl	equ	0xFF6
   717                           tablat	equ	0xFF5
   718                           prodh	equ	0xFF4
   719                           prodl	equ	0xFF3
   720                           fsr0h	equ	0xFEA
   721                           fsr0l	equ	0xFE9
   722                           wreg	equ	0xFE8
   723                           fsr1h	equ	0xFE2
   724                           fsr1l	equ	0xFE1
   725                           fsr2h	equ	0xFDA
   726                           fsr2l	equ	0xFD9
   727                           status	equ	0xFD8


Data Sizes:
    Strings     0
    Constant    0
    Data        0
    BSS         2
    Persistent  0
    Stack       0

Auto Spaces:
    Space          Size  Autos    Used
    COMRAM           94     16      18
    BANK0           160      0       0
    BANK1           256      0       0
    BANK2           256      0       0
    BANK3           256      0       0
    BANK4           256      0       0
    BANK5           256      0       0
    BANK6           256      0       0
    BANK7           256      0       0

Pointer List with Targets:

    None.

Critical Paths under _main in COMRAM

    _main->_APP_tick
    _SYSTEM_Initialize->_LED_Enable
    _APP_tick->_LED_Toggle

Critical Paths under _SYS_InterruptHigh in COMRAM

    None.

Critical Paths under _main in BANK0

    None.

Critical Paths under _SYS_InterruptHigh in BANK0

    None.

Critical Paths under _main in BANK1

    None.

Critical Paths under _SYS_InterruptHigh in BANK1

    None.

Critical Paths under _main in BANK2

    None.

Critical Paths under _SYS_InterruptHigh in BANK2

    None.

Critical Paths under _main in BANK3

    None.

Critical Paths under _SYS_InterruptHigh in BANK3

    None.

Critical Paths under _main in BANK4

    None.

Critical Paths under _SYS_InterruptHigh in BANK4

    None.

Critical Paths under _main in BANK5

    None.

Critical Paths under _SYS_InterruptHigh in BANK5

    None.

Critical Paths under _main in BANK6

    None.

Critical Paths under _SYS_InterruptHigh in BANK6

    None.

Critical Paths under _main in BANK7

    None.

Critical Paths under _SYS_InterruptHigh in BANK7

    None.

Call Graph Tables:

 ---------------------------------------------------------------------------------
 (Depth) Function   	        Calls       Base Space   Used Autos Params    Refs
 ---------------------------------------------------------------------------------
 (0) _main                                                 0     0      0      30
                           _APP_tick
                  _SYSTEM_Initialize
 ---------------------------------------------------------------------------------
 (1) _SYSTEM_Initialize                                    0     0      0      15
                         _LED_Enable
 ---------------------------------------------------------------------------------
 (2) _LED_Enable                                           1     1      0      15
                                             14 COMRAM     1     1      0
 ---------------------------------------------------------------------------------
 (1) _APP_tick                                             1     1      0      15
                                             15 COMRAM     1     1      0
                         _LED_Toggle
 ---------------------------------------------------------------------------------
 (2) _LED_Toggle                                           1     1      0      15
                                             14 COMRAM     1     1      0
 ---------------------------------------------------------------------------------
 Estimated maximum stack depth 2
 ---------------------------------------------------------------------------------
 (Depth) Function   	        Calls       Base Space   Used Autos Params    Refs
 ---------------------------------------------------------------------------------
 (3) _SYS_InterruptHigh                                   14    14      0       0
                                              0 COMRAM    14    14      0
 ---------------------------------------------------------------------------------
 Estimated maximum stack depth 3
 ---------------------------------------------------------------------------------

 Call Graph Graphs:

 _main (ROOT)
   _APP_tick
     _LED_Toggle
   _SYSTEM_Initialize
     _LED_Enable

 _SYS_InterruptHigh (ROOT)

 Address spaces:
Name               Size   Autos  Total    Cost      Usage
BIGRAM             7FF      0       0      21        0.0%
EEDATA             100      0       0       0        0.0%
BITBANK7           100      0       0      18        0.0%
BANK7              100      0       0      19        0.0%
BITBANK6           100      0       0      16        0.0%
BANK6              100      0       0      17        0.0%
BITBANK5           100      0       0      14        0.0%
BANK5              100      0       0      15        0.0%
BITBANK4           100      0       0      12        0.0%
BANK4              100      0       0      13        0.0%
BITBANK3           100      0       0      10        0.0%
BANK3              100      0       0      11        0.0%
BITBANK2           100      0       0       8        0.0%
BANK2              100      0       0       9        0.0%
BITBANK1           100      0       0       6        0.0%
BANK1              100      0       0       7        0.0%
BITBANK0            A0      0       0       4        0.0%
BANK0               A0      0       0       5        0.0%
BITCOMRAM           5E      0       0       0        0.0%
COMRAM              5E     10      12       1       19.1%
BITSFR               0      0       0      40        0.0%
SFR                  0      0       0      40        0.0%
STACK                0      0       0       2        0.0%
NULL                 0      0       0       0        0.0%
ABS                  0      0      12      20        0.0%
DATA                 0      0      12       3        0.0%
CODE                 0      0       0       0        0.0%


Microchip Technology PIC18 Macro Assembler V1.36 build -262312587 
Symbol Table                                                                                   Wed Feb 17 20:37:02 2016

                         _c 0011                          l95 0148                          l97 014C  
                        l98 0150                          l99 0154                          u47 0026  
                        u57 0034                          u67 0042                          u77 0050  
                        u87 005E                          u97 006C                 ?_LED_Enable 0001  
               __CFG_BOR$ON 000000                 __CFG_BORV$3 000000          __CFG_FOSC$XTPLL_XT 000000  
              __CFG_CP0$OFF 000000                __CFG_CP1$OFF 000000                         l115 0112  
                       l117 0116                         l118 011A                         l119 011E  
                       l128 01B4                 ?_LED_Toggle 0001                         l762 0158  
                       l768 0122                __CFG_CPB$OFF 000000                         u107 007A  
                       u117 0088                         u127 0096                         wreg 000FE8  
              __CFG_LVP$OFF 000000                __CFG_WDT$OFF 000000                        _main 01B0  
                      fsr0h 000FEA                        fsr1h 000FE2                        fsr0l 000FE9  
                      fsr2h 000FDA                        fsr1l 000FE1                        fsr2l 000FD9  
                      btemp 0013                        pclat 000FFA                        prodh 000FF4  
                      prodl 000FF3                        start 0016               __CFG_IESO$OFF 000000  
             __CFG_MCLRE$ON 000000                ___param_bank 000010               __CFG_PLLDIV$1 000000  
          __end_of_APP_tick 00A0                       ?_main 0001               __CFG_USBDIV$2 000000  
             __CFG_PWRT$OFF 000000               __CFG_WRT0$OFF 000000               __CFG_WRT1$OFF 000000  
            __CFG_EBTR0$OFF 000000              __CFG_FCMEN$OFF 000000              __CFG_EBTR1$OFF 000000  
             __CFG_WRTB$OFF 000000               __CFG_WRTC$OFF 000000              __CFG_EBTRB$OFF 000000  
                     tablat 000FF5         __size_of_LED_Enable 0036                       status 000FD8  
       __size_of_LED_Toggle 0036             __initialization 019E                __end_of_main 01BA  
                    ??_main 0011               __activetblptr 000002                      _ADCON0 000FC2  
                    _ADCON2 000FC0                      _ADRESH 000FC4                      _ADRESL 000FC3  
            __CFG_VREGEN$ON 000000              __CFG_XINST$OFF 000000              __CFG_STVREN$ON 000000  
                    tblptrh 000FF7                      tblptrl 000FF6                      tblptru 000FF8  
         _SYSTEM_Initialize 017A                  __accesstop 0060     __end_of__initialization 01A2  
           __CFG_PBADEN$OFF 000000                   ?_APP_tick 0001          ?_SYSTEM_Initialize 0001  
             ___rparam_used 000001              __pcstackCOMRAM 0001         ??_SYSTEM_Initialize 0010  
              ??_LED_Enable 000F                ??_LED_Toggle 000F   __end_of_SYSTEM_Initialize 019E  
                ??_APP_tick 0010          __end_of_LED_Enable 0144          __end_of_LED_Toggle 017A  
             LED_Enable@led 000F                     __Hparam 0000                     __Lparam 0000  
                   __pcinit 019E                     __ramtop 0800                     __ptext0 01B0  
                   __ptext1 017A                     __ptext2 010E                     __ptext3 001A  
                   __ptext4 0144  __size_of_SYSTEM_Initialize 0024              __pintcode_body 00A0  
      end_of_initialization 01A2               __Lmediumconst 0000                     int_func 00A0  
                 _PORTBbits 000F81               LED_Toggle@led 000F                   _TRISAbits 000F92  
                 _TRISBbits 000F93                   _TRISCbits 000F94           __size_of_APP_tick 0086  
       start_initialization 019E            __CFG_LPT1OSC$OFF 000000                 __pbssCOMRAM 0011  
                 __pintcode 0008                    _APP_tick 001A                    _LATBbits 000F8A  
                  _LATCbits 000F8B            __CFG_WDTPS$32768 000000                  _ADCON0bits 000FC2  
                _ADCON1bits 000FC1                  _ADCON2bits 000FC0           _SYS_InterruptHigh 0008  
        ?_SYS_InterruptHigh 0001         ??_SYS_InterruptHigh 0001                    __Hrparam 0000  
                  __Lrparam 0000   __end_of_SYS_InterruptHigh 010E               __size_of_main 000A  
                  int$flags 0013                  _LED_Enable 010E       __CFG_CPUDIV$OSC1_PLL2 000000  
                _LED_Toggle 0144                    intlevel2 0000  __size_of_SYS_InterruptHigh 0106  
               _SSPCON1bits 000FC6  
