

Microchip Technology PIC18 LITE Macro Assembler V1.36 build -262312587 
                                                                                               Fri Mar 25 22:32:55 2016

Microchip Technology Omniscient Code Generator v1.36 (Free mode) build 201601150325
     1                           	processor	18F2550
     2                           	fnconf	rparam,??,?,0
     3                           	opt	pw 120
     4                           	opt	lm
     5                           	psect	smallconst,global,reloc=2,class=SMALLCONST,delta=1
     6                           	psect	cinit,global,reloc=2,class=CODE,delta=1
     7                           	psect	bssCOMRAM,global,class=COMRAM,space=1,delta=1
     8                           	psect	bssBANK0,global,class=BANK0,space=1,delta=1
     9                           	psect	cstackBANK0,global,class=BANK0,space=1,delta=1
    10                           	psect	cstackCOMRAM,global,class=COMRAM,space=1,delta=1
    11                           	psect	text0,global,reloc=2,class=CODE,delta=1
    12                           	psect	text1,global,reloc=2,class=CODE,delta=1
    13                           	psect	text2,global,reloc=2,class=CODE,delta=1
    14                           	psect	text3,global,reloc=2,class=CODE,delta=1
    15                           	psect	text4,global,reloc=2,class=CODE,delta=1
    16                           	psect	text5,global,reloc=2,class=CODE,delta=1
    17                           	psect	text6,global,reloc=2,class=CODE,delta=1
    18                           	psect	text7,global,reloc=2,class=CODE,delta=1
    19                           	psect	text8,global,reloc=2,class=CODE,delta=1
    20                           	psect	text9,global,reloc=2,class=CODE,delta=1
    21                           	psect	text10,global,reloc=2,class=CODE,delta=1
    22                           	psect	text11,global,reloc=2,class=CODE,delta=1
    23                           	psect	text12,global,reloc=2,class=CODE,delta=1
    24                           	psect	intcode,global,reloc=2,class=CODE,delta=1
    25                           	psect	intcode_body,global,reloc=2,class=CODE,delta=1
    26                           	psect	text14,global,reloc=2,class=CODE,delta=1
    27                           	psect	text15,global,reloc=2,class=CODE,delta=1
    28                           	psect	text16,global,reloc=2,class=CODE,delta=1
    29                           	psect	text17,global,reloc=2,class=CODE,delta=1
    30                           	psect	text18,global,reloc=2,class=CODE,delta=1
    31                           	psect	text19,global,reloc=2,class=CODE,delta=1
    32                           	psect	text20,global,reloc=2,class=CODE,delta=1
    33                           	psect	text21,global,reloc=2,class=CODE,delta=1
    34                           	psect	text22,global,reloc=2,class=CODE,delta=1
    35                           	psect	text23,global,reloc=2,class=CODE,delta=1
    36                           	psect	text24,global,reloc=2,class=CODE,delta=1
    37                           	psect	text25,global,reloc=2,class=CODE,delta=1
    38                           	psect	text26,global,reloc=2,class=CODE,delta=1
    39                           	psect	text27,global,reloc=2,class=CODE,delta=1
    40                           	psect	text28,global,reloc=2,class=CODE,delta=1
    41                           	psect	text29,global,reloc=2,class=CODE,delta=1
    42                           	psect	text30,global,reloc=2,class=CODE,delta=1
    43                           	psect	text31,global,reloc=2,class=CODE,delta=1
    44                           	psect	text32,global,reloc=2,class=CODE,delta=1
    45                           	psect	text33,global,reloc=2,class=CODE,delta=1
    46                           	psect	text34,global,reloc=2,class=CODE,delta=1
    47                           	psect	text35,global,reloc=2,class=CODE,delta=1
    48                           	psect	text36,global,reloc=2,class=CODE,delta=1
    49                           	psect	text37,global,reloc=2,class=CODE,delta=1
    50                           	psect	text38,global,reloc=2,class=CODE,delta=1
    51                           	psect	text39,global,reloc=2,class=CODE,delta=1
    52                           	psect	text40,global,reloc=2,class=CODE,delta=1
    53                           	psect	text41,global,reloc=2,class=CODE,delta=1
    54                           	psect	text42,global,reloc=2,class=CODE,delta=1
    55                           	psect	text43,global,reloc=2,class=CODE,delta=1
    56                           	psect	text44,global,reloc=2,class=CODE,delta=1
    57                           	psect	text45,global,reloc=2,class=CODE,delta=1
    58                           	psect	text46,global,reloc=2,class=CODE,delta=1
    59                           	psect	intsave_regs,global,class=BIGRAM,space=1,delta=1
    60                           	psect	rparam,global,class=COMRAM,space=1,delta=1
    61                           	psect	temp,global,ovrld,common,class=COMRAM,space=1,delta=1
    62                           	dabs	1,0x400,32,_BDT
    63                           	dabs	1,0x500,64,_ReceivedDataBuffer
    64                           	dabs	1,0x428,8,_CtrlTrfData
    65                           	dabs	1,0x420,8,_SetupPkt
    66                           	dabs	1,0x540,64,_ToSendDataBuffer
    67  0000                     
    68                           	psect	smallconst
    69  000800                     __psmallconst:
    70                           	opt stack 0
    71  000800  00                 	db	0
    72  000801                     _USB_SD_Ptr:
    73                           	opt stack 0
    74  000801  C3                 	db	low _sd000
    75  000802  08                 	db	high _sd000
    76  000803  09                 	db	low _sd001
    77  000804  08                 	db	high _sd001
    78  000805  3D                 	db	low _sd002
    79  000806  08                 	db	high _sd002
    80  000807                     __end_of_USB_SD_Ptr:
    81                           	opt stack 0
    82  000807                     _USB_CD_Ptr:
    83                           	opt stack 0
    84  000807  6B                 	db	low _configDescriptor1
    85  000808  08                 	db	high _configDescriptor1
    86  000809                     __end_of_USB_CD_Ptr:
    87                           	opt stack 0
    88  000809                     _sd001:
    89                           	opt stack 0
    90  000809  34                 	db	52
    91  00080A  03                 	db	3
    92  00080B  004D               	dw	77
    93  00080D  0069               	dw	105
    94  00080F  0063               	dw	99
    95  000811  0072               	dw	114
    96  000813  006F               	dw	111
    97  000815  0063               	dw	99
    98  000817  0068               	dw	104
    99  000819  0069               	dw	105
   100  00081B  0070               	dw	112
   101  00081D  0020               	dw	32
   102  00081F  0054               	dw	84
   103  000821  0065               	dw	101
   104  000823  0063               	dw	99
   105  000825  0068               	dw	104
   106  000827  006E               	dw	110
   107  000829  006F               	dw	111
   108  00082B  006C               	dw	108
   109  00082D  006F               	dw	111
   110  00082F  0067               	dw	103
   111  000831  0079               	dw	121
   112  000833  0020               	dw	32
   113  000835  0049               	dw	73
   114  000837  006E               	dw	110
   115  000839  0063               	dw	99
   116  00083B  002E               	dw	46
   117  00083D                     __end_of_sd001:
   118                           	opt stack 0
   119  00083D                     _sd002:
   120                           	opt stack 0
   121  00083D  2E                 	db	46
   122  00083E  03                 	db	3
   123  00083F  0053               	dw	83
   124  000841  0069               	dw	105
   125  000843  006D               	dw	109
   126  000845  0070               	dw	112
   127  000847  006C               	dw	108
   128  000849  0065               	dw	101
   129  00084B  0020               	dw	32
   130  00084D  0048               	dw	72
   131  00084F  0049               	dw	73
   132  000851  0044               	dw	68
   133  000853  0020               	dw	32
   134  000855  0044               	dw	68
   135  000857  0065               	dw	101
   136  000859  0076               	dw	118
   137  00085B  0069               	dw	105
   138  00085D  0063               	dw	99
   139  00085F  0065               	dw	101
   140  000861  0020               	dw	32
   141  000863  0044               	dw	68
   142  000865  0065               	dw	101
   143  000867  006D               	dw	109
   144  000869  006F               	dw	111
   145  00086B                     __end_of_sd002:
   146                           	opt stack 0
   147  00086B                     _configDescriptor1:
   148                           	opt stack 0
   149  00086B  09                 	db	9
   150  00086C  02                 	db	2
   151  00086D  29                 	db	41
   152  00086E  00                 	db	0
   153  00086F  01                 	db	1
   154  000870  01                 	db	1
   155  000871  00                 	db	0
   156  000872  C0                 	db	192
   157  000873  32                 	db	50
   158  000874  09                 	db	9
   159  000875  04                 	db	4
   160  000876  00                 	db	0
   161  000877  00                 	db	0
   162  000878  02                 	db	2
   163  000879  03                 	db	3
   164  00087A  00                 	db	0
   165  00087B  00                 	db	0
   166  00087C  00                 	db	0
   167  00087D  09                 	db	9
   168  00087E  21                 	db	33
   169  00087F  11                 	db	17
   170  000880  01                 	db	1
   171  000881  00                 	db	0
   172  000882  01                 	db	1
   173  000883  22                 	db	34
   174  000884  1D                 	db	29
   175  000885  00                 	db	0
   176  000886  07                 	db	7
   177  000887  05                 	db	5
   178  000888  81                 	db	129
   179  000889  03                 	db	3
   180  00088A  40                 	db	64
   181  00088B  00                 	db	0
   182  00088C  01                 	db	1
   183  00088D  07                 	db	7
   184  00088E  05                 	db	5
   185  00088F  01                 	db	1
   186  000890  03                 	db	3
   187  000891  40                 	db	64
   188  000892  00                 	db	0
   189  000893  01                 	db	1
   190  000894                     __end_of_configDescriptor1:
   191                           	opt stack 0
   192  000894                     _hid_rpt01:
   193                           	opt stack 0
   194  000894  06                 	db	6
   195  000895  00                 	db	0
   196  000896  FF                 	db	255
   197  000897  09                 	db	9
   198  000898  01                 	db	1
   199  000899  A1                 	db	161
   200  00089A  01                 	db	1
   201  00089B  19                 	db	25
   202  00089C  01                 	db	1
   203  00089D  29                 	db	41
   204  00089E  40                 	db	64
   205  00089F  15                 	db	21
   206  0008A0  00                 	db	0
   207  0008A1  26                 	db	38
   208  0008A2  FF                 	db	255
   209  0008A3  00                 	db	0
   210  0008A4  75                 	db	117
   211  0008A5  08                 	db	8
   212  0008A6  95                 	db	149
   213  0008A7  40                 	db	64
   214  0008A8  81                 	db	129
   215  0008A9  00                 	db	0
   216  0008AA  19                 	db	25
   217  0008AB  01                 	db	1
   218  0008AC  29                 	db	41
   219  0008AD  40                 	db	64
   220  0008AE  91                 	db	145
   221  0008AF  00                 	db	0
   222  0008B0  C0                 	db	192
   223  0008B1                     __end_of_hid_rpt01:
   224                           	opt stack 0
   225  0008B1                     _device_dsc:
   226                           	opt stack 0
   227  0008B1  12                 	db	18
   228  0008B2  01                 	db	1
   229  0008B3  0200               	dw	512
   230  0008B5  00                 	db	0
   231  0008B6  00                 	db	0
   232  0008B7  00                 	db	0
   233  0008B8  08                 	db	8
   234  0008B9  04D8               	dw	1240
   235  0008BB  003F               	dw	63
   236  0008BD  0002               	dw	2
   237  0008BF  01                 	db	1
   238  0008C0  02                 	db	2
   239  0008C1  00                 	db	0
   240  0008C2  01                 	db	1
   241  0008C3                     __end_of_device_dsc:
   242                           	opt stack 0
   243  0008C3                     _sd000:
   244                           	opt stack 0
   245  0008C3  04                 	db	4
   246  0008C4  03                 	db	3
   247  0008C5  0409               	dw	1033
   248  0008C7                     __end_of_sd000:
   249                           	opt stack 0
   250  0000                     _ADCON0	set	4034
   251  0000                     _ADCON0bits	set	4034
   252  0000                     _ADCON1bits	set	4033
   253  0000                     _ADCON2	set	4032
   254  0000                     _ADCON2bits	set	4032
   255  0000                     _ADRESH	set	4036
   256  0000                     _ADRESL	set	4035
   257  0000                     _CCP1CONbits	set	4029
   258  0000                     _CCP2CONbits	set	4026
   259  0000                     _CCPR1L	set	4030
   260  0000                     _CCPR2L	set	4027
   261  0000                     _INTCONbits	set	4082
   262  0000                     _IPR2bits	set	4002
   263  0000                     _LATA	set	3977
   264  0000                     _LATB	set	3978
   265  0000                     _LATBbits	set	3978
   266  0000                     _PIE2bits	set	4000
   267  0000                     _PIR1bits	set	3998
   268  0000                     _PIR2bits	set	4001
   269  0000                     _PR2	set	4043
   270  0000                     _RCONbits	set	4048
   271  0000                     _SSPBUF	set	4041
   272  0000                     _SSPCON1	set	4038
   273  0000                     _SSPCON1bits	set	4038
   274  0000                     _SSPSTAT	set	4039
   275  0000                     _SSPSTATbits	set	4039
   276  0000                     _TRISA	set	3986
   277  0000                     _TRISAbits	set	3986
   278  0000                     _TRISB	set	3987
   279  0000                     _TRISBbits	set	3987
   280  0000                     _TRISCbits	set	3988
   281  0000                     _UADDR	set	3950
   282  0000                     _UCFG	set	3951
   283  0000                     _UCON	set	3949
   284  0000                     _UCONbits	set	3949
   285  0000                     _UEIE	set	3947
   286  0000                     _UEIR	set	3946
   287  0000                     _UEP0bits	set	3952
   288  0000                     _UIE	set	3945
   289  0000                     _UIEbits	set	3945
   290  0000                     _UIR	set	3944
   291  0000                     _UIRbits	set	3944
   292  0000                     _USTAT	set	3948
   293  0000                     _UEP0	set	3952
   294  0000                     _UEP1	set	3953
   295  0000                     _CCP1M2	set	32234
   296  0000                     _CCP1M3	set	32235
   297  0000                     _CCP2M2	set	32210
   298  0000                     _CCP2M3	set	32211
   299  0000                     _T2CKPS0	set	32336
   300  0000                     _T2CKPS1	set	32337
   301  0000                     _TMR2ON	set	32338
   302                           
   303                           ; #config settings
   304  0008C7  00                 	db	0	; dummy byte at the end
   305  0000                     
   306                           	psect	cinit
   307  002324                     __pcinit:
   308                           	opt stack 0
   309  002324                     start_initialization:
   310                           	opt stack 0
   311  002324                     __initialization:
   312                           	opt stack 0
   313                           
   314                           ; Clear objects allocated to BANK0 (28 bytes)
   315  002324  EE00  F060         	lfsr	0,__pbssBANK0
   316  002328  0E1C               	movlw	28
   317  00232A                     clear_0:
   318  00232A  6AEE               	clrf	postinc0,c
   319  00232C  06E8               	decf	wreg,f,c
   320  00232E  E1FD               	bnz	clear_0
   321                           
   322                           ; Clear objects allocated to COMRAM (43 bytes)
   323  002330  EE00  F001         	lfsr	0,__pbssCOMRAM
   324  002334  0E2B               	movlw	43
   325  002336                     clear_1:
   326  002336  6AEE               	clrf	postinc0,c
   327  002338  06E8               	decf	wreg,f,c
   328  00233A  E1FD               	bnz	clear_1
   329  00233C                     end_of_initialization:
   330                           	opt stack 0
   331  00233C                     __end_of__initialization:
   332                           	opt stack 0
   333  00233C  9056               	bcf	int$flags,0,c	;clear compiler interrupt flag (level 1)
   334  00233E  9256               	bcf	int$flags,1,c	;clear compiler interrupt flag (level 2)
   335  002340  0E00               	movlw	low (__Lmediumconst shr (0+16))
   336  002342  6EF8               	movwf	tblptru,c
   337  002344  0100               	movlb	0
   338  002346  EFA5  F011         	goto	_main	;jump to C main() function
   339                           tblptru	equ	0xFF8
   340                           postinc0	equ	0xFEE
   341                           wreg	equ	0xFE8
   342                           
   343                           	psect	bssCOMRAM
   344  000001                     __pbssCOMRAM:
   345                           	opt stack 0
   346  000001                     _outPipes:
   347                           	opt stack 0
   348  000001                     	ds	8
   349  000009                     _inPipes:
   350                           	opt stack 0
   351  000009                     	ds	6
   352  00000F                     _pBDTEntryIn:
   353                           	opt stack 0
   354  00000F                     	ds	4
   355  000013                     _ep_data_in:
   356                           	opt stack 0
   357  000013                     	ds	2
   358  000015                     _ep_data_out:
   359                           	opt stack 0
   360  000015                     	ds	2
   361  000017                     _pBDTEntryEP0OutCurrent:
   362                           	opt stack 0
   363  000017                     	ds	2
   364  000019                     _pBDTEntryEP0OutNext:
   365                           	opt stack 0
   366  000019                     	ds	2
   367  00001B                     _BothEP0OutUOWNsSet:
   368                           	opt stack 0
   369  00001B                     	ds	1
   370  00001C                     _RemoteWakeup:
   371                           	opt stack 0
   372  00001C                     	ds	1
   373  00001D                     _USBBusIsSuspended:
   374                           	opt stack 0
   375  00001D                     	ds	1
   376  00001E                     _USBDeferINDataStagePackets:
   377                           	opt stack 0
   378  00001E                     	ds	1
   379  00001F                     _USBDeferOUTDataStagePackets:
   380                           	opt stack 0
   381  00001F                     	ds	1
   382  000020                     _USBDeferStatusStagePacket:
   383                           	opt stack 0
   384  000020                     	ds	1
   385  000021                     _USBDeviceState:
   386                           	opt stack 0
   387  000021                     	ds	1
   388  000022                     _USBStatusStageEnabledFlag1:
   389                           	opt stack 0
   390  000022                     	ds	1
   391  000023                     _USBStatusStageEnabledFlag2:
   392                           	opt stack 0
   393  000023                     	ds	1
   394  000024                     _USBStatusStageTimeoutCounter:
   395                           	opt stack 0
   396  000024                     	ds	1
   397  000025                     _USBTicksSinceSuspendEnd:
   398                           	opt stack 0
   399  000025                     	ds	1
   400  000026                     _controlTransferState:
   401                           	opt stack 0
   402  000026                     	ds	1
   403  000027                     _endpoint_number:
   404                           	opt stack 0
   405  000027                     	ds	1
   406  000028                     _shortPacketStatus:
   407                           	opt stack 0
   408  000028                     	ds	1
   409  000029                     _USBActiveConfiguration:
   410                           	opt stack 0
   411  000029                     	ds	1
   412  00002A                     _USBAlternateInterface:
   413                           	opt stack 0
   414  00002A                     	ds	1
   415  00002B                     _USTATcopy:
   416                           	opt stack 0
   417  00002B                     	ds	1
   418                           tblptru	equ	0xFF8
   419                           postinc0	equ	0xFEE
   420                           wreg	equ	0xFE8
   421                           
   422                           	psect	bssBANK0
   423  000060                     __pbssBANK0:
   424                           	opt stack 0
   425  000060                     _USB1msTickCount:
   426                           	opt stack 0
   427  000060                     	ds	4
   428  000064                     _pBDTEntryOut:
   429                           	opt stack 0
   430  000064                     	ds	4
   431  000068                     _USBInHandle:
   432                           	opt stack 0
   433  000068                     	ds	2
   434  00006A                     _USBOutHandle:
   435                           	opt stack 0
   436  00006A                     	ds	2
   437  00006C                     _currIddlePwm1:
   438                           	opt stack 0
   439  00006C                     	ds	2
   440  00006E                     _currIddlePwm2:
   441                           	opt stack 0
   442  00006E                     	ds	2
   443  000070                     _currIddlePwm3:
   444                           	opt stack 0
   445  000070                     	ds	2
   446  000072                     _currIddlePwm4:
   447                           	opt stack 0
   448  000072                     	ds	2
   449  000074                     _pDst:
   450                           	opt stack 0
   451  000074                     	ds	2
   452  000076                     _Left:
   453                           	opt stack 0
   454  000076                     	ds	1
   455  000077                     _Right:
   456                           	opt stack 0
   457  000077                     	ds	1
   458  000078                     _LeftRight:
   459                           	opt stack 0
   460  000078                     	ds	2
   461  00007A                     _active_protocol:
   462                           	opt stack 0
   463  00007A                     	ds	1
   464  00007B                     _idle_rate:
   465                           	opt stack 0
   466  00007B                     	ds	1
   467                           tblptru	equ	0xFF8
   468                           postinc0	equ	0xFEE
   469                           wreg	equ	0xFE8
   470                           
   471                           	psect	cstackBANK0
   472  00007C                     __pcstackBANK0:
   473                           	opt stack 0
   474  00007C                     ?_USBTransferOnePacket:
   475                           	opt stack 0
   476  00007C                     USBTransferOnePacket@dir:
   477                           	opt stack 0
   478  00007C                     SPI_R_OpenSPI@bus_mode:
   479                           	opt stack 0
   480  00007C                     PWM_R_setPWM1@val:
   481                           	opt stack 0
   482  00007C                     PWM_R_setPWM2@val:
   483                           	opt stack 0
   484  00007C                     SPI_R_putsSPI@wrptr:
   485                           	opt stack 0
   486  00007C                     memset@p1:
   487                           	opt stack 0
   488                           
   489                           ; 2 bytes @ 0x0
   490  00007C                     	ds	1
   491  00007D                     SPI_R_OpenSPI@smp_phase:
   492                           	opt stack 0
   493  00007D                     USBTransferOnePacket@data:
   494                           	opt stack 0
   495                           
   496                           ; 2 bytes @ 0x1
   497  00007D                     	ds	1
   498  00007E                     ??_PWM_R_setPWM1:
   499  00007E                     ??_PWM_R_setPWM2:
   500  00007E                     SPI_R_OpenSPI@sync_mode:
   501                           	opt stack 0
   502  00007E                     memset@c:
   503                           	opt stack 0
   504                           
   505                           ; 2 bytes @ 0x2
   506  00007E                     	ds	1
   507  00007F                     ??_SYSTEM_Initialize:
   508  00007F                     ??_APP_iddle:
   509  00007F                     USBTransferOnePacket@len:
   510                           	opt stack 0
   511                           
   512                           ; 1 bytes @ 0x3
   513  00007F                     	ds	1
   514  000080                     USBTransferOnePacket@ep:
   515                           	opt stack 0
   516  000080                     SYSTEM_Initialize@state:
   517                           	opt stack 0
   518  000080                     APP_iddle@n:
   519                           	opt stack 0
   520  000080                     memset@n:
   521                           	opt stack 0
   522                           
   523                           ; 2 bytes @ 0x4
   524  000080                     	ds	1
   525  000081                     SYSTEM_Initialize@n:
   526                           	opt stack 0
   527  000081                     USBTransferOnePacket@handle:
   528                           	opt stack 0
   529                           
   530                           ; 2 bytes @ 0x5
   531  000081                     	ds	1
   532  000082                     memset@p:
   533                           	opt stack 0
   534                           
   535                           ; 2 bytes @ 0x6
   536  000082                     	ds	1
   537  000083                     
   538                           ; 1 bytes @ 0x7
   539  000083                     	ds	1
   540  000084                     USBDeviceInit@i:
   541                           	opt stack 0
   542                           
   543                           ; 1 bytes @ 0x8
   544  000084                     	ds	1
   545  000085                     tblptru	equ	0xFF8
   546                           postinc0	equ	0xFEE
   547                           wreg	equ	0xFE8
   548                           
   549                           ; 1 bytes @ 0x9
   550                           
   551                           	psect	cstackCOMRAM
   552  00002C                     __pcstackCOMRAM:
   553                           	opt stack 0
   554  00002C                     ??_USBStdGetDscHandler:
   555  00002C                     ??_USBStdGetStatusHandler:
   556  00002C                     ?i2_USBTransferOnePacket:
   557                           	opt stack 0
   558  00002C                     USBConfigureEndpoint@direction:
   559                           	opt stack 0
   560  00002C                     USBCtrlTrfTxService@byteToSend:
   561                           	opt stack 0
   562  00002C                     USBCtrlTrfRxService@i:
   563                           	opt stack 0
   564  00002C                     i2USBTransferOnePacket@dir:
   565                           	opt stack 0
   566  00002C                     i2SPI_R_OpenSPI@bus_mode:
   567                           	opt stack 0
   568  00002C                     memcpy@d1:
   569                           	opt stack 0
   570  00002C                     i2PWM_R_setPWM1@val:
   571                           	opt stack 0
   572  00002C                     i2PWM_R_setPWM2@val:
   573                           	opt stack 0
   574  00002C                     i2memset@p1:
   575                           	opt stack 0
   576                           
   577                           ; 2 bytes @ 0x0
   578  00002C                     	ds	1
   579  00002D                     ??_USBConfigureEndpoint:
   580  00002D                     USBCtrlTrfRxService@byteToRead:
   581                           	opt stack 0
   582  00002D                     USBCtrlTrfInHandler@lastDTS:
   583                           	opt stack 0
   584  00002D                     i2SPI_R_OpenSPI@smp_phase:
   585                           	opt stack 0
   586  00002D                     USBStdGetStatusHandler@p:
   587                           	opt stack 0
   588  00002D                     i2USBTransferOnePacket@data:
   589                           	opt stack 0
   590                           
   591                           ; 2 bytes @ 0x1
   592  00002D                     	ds	1
   593  00002E                     ??i2_PWM_R_setPWM1:
   594  00002E                     ??i2_PWM_R_setPWM2:
   595  00002E                     i2SPI_R_OpenSPI@sync_mode:
   596                           	opt stack 0
   597  00002E                     memcpy@s1:
   598                           	opt stack 0
   599  00002E                     i2memset@c:
   600                           	opt stack 0
   601                           
   602                           ; 2 bytes @ 0x2
   603  00002E                     	ds	1
   604  00002F                     ??i2_SYSTEM_Initialize:
   605  00002F                     i2USBTransferOnePacket@len:
   606                           	opt stack 0
   607                           
   608                           ; 1 bytes @ 0x3
   609  00002F                     	ds	1
   610  000030                     i2USBTransferOnePacket@ep:
   611                           	opt stack 0
   612  000030                     i2SYSTEM_Initialize@state:
   613                           	opt stack 0
   614  000030                     memcpy@n:
   615                           	opt stack 0
   616  000030                     i2memset@n:
   617                           	opt stack 0
   618                           
   619                           ; 2 bytes @ 0x4
   620  000030                     	ds	1
   621  000031                     USBConfigureEndpoint@EPNum:
   622                           	opt stack 0
   623  000031                     i2SYSTEM_Initialize@n:
   624                           	opt stack 0
   625  000031                     i2USBTransferOnePacket@handle:
   626                           	opt stack 0
   627                           
   628                           ; 2 bytes @ 0x5
   629  000031                     	ds	1
   630  000032                     USBConfigureEndpoint@handle:
   631                           	opt stack 0
   632  000032                     memcpy@d:
   633                           	opt stack 0
   634  000032                     i2memset@p:
   635                           	opt stack 0
   636                           
   637                           ; 2 bytes @ 0x6
   638  000032                     	ds	2
   639  000034                     USBEnableEndpoint@options:
   640                           	opt stack 0
   641  000034                     i2USBDeviceInit@i:
   642                           	opt stack 0
   643  000034                     memcpy@s:
   644                           	opt stack 0
   645                           
   646                           ; 2 bytes @ 0x8
   647  000034                     	ds	1
   648  000035                     USBEnableEndpoint@p:
   649                           	opt stack 0
   650                           
   651                           ; 2 bytes @ 0x9
   652  000035                     	ds	2
   653  000037                     USBEnableEndpoint@ep:
   654                           	opt stack 0
   655                           
   656                           ; 1 bytes @ 0xB
   657  000037                     	ds	1
   658  000038                     USER_USB_CALLBACK_EVENT_HANDLER@event:
   659                           	opt stack 0
   660                           
   661                           ; 2 bytes @ 0xC
   662  000038                     	ds	2
   663  00003A                     USER_USB_CALLBACK_EVENT_HANDLER@pdata:
   664                           	opt stack 0
   665                           
   666                           ; 2 bytes @ 0xE
   667  00003A                     	ds	2
   668  00003C                     USER_USB_CALLBACK_EVENT_HANDLER@size:
   669                           	opt stack 0
   670                           
   671                           ; 2 bytes @ 0x10
   672  00003C                     	ds	2
   673  00003E                     ??_USER_USB_CALLBACK_EVENT_HANDLER:
   674                           
   675                           ; 1 bytes @ 0x12
   676  00003E                     	ds	2
   677  000040                     ??_USBStdFeatureReqHandler:
   678  000040                     USBStdSetCfgHandler@i:
   679                           	opt stack 0
   680                           
   681                           ; 1 bytes @ 0x14
   682  000040                     	ds	1
   683  000041                     USBStdFeatureReqHandler@pUEP:
   684                           	opt stack 0
   685                           
   686                           ; 2 bytes @ 0x15
   687  000041                     	ds	2
   688  000043                     USBStdFeatureReqHandler@current_ep_data:
   689                           	opt stack 0
   690                           
   691                           ; 1 bytes @ 0x17
   692  000043                     	ds	1
   693  000044                     USBStdFeatureReqHandler@p:
   694                           	opt stack 0
   695                           
   696                           ; 2 bytes @ 0x18
   697  000044                     	ds	2
   698  000046                     ??_USBCtrlEPService:
   699  000046                     
   700                           ; 1 bytes @ 0x1A
   701  000046                     	ds	1
   702  000047                     USBDeviceTasks@i:
   703                           	opt stack 0
   704                           
   705                           ; 1 bytes @ 0x1B
   706  000047                     	ds	1
   707  000048                     ??_SYS_InterruptHigh:
   708                           
   709                           ; 1 bytes @ 0x1C
   710  000048                     	ds	14
   711                           tblptru	equ	0xFF8
   712                           postinc0	equ	0xFEE
   713                           wreg	equ	0xFE8
   714                           
   715 ;;
   716 ;;Main: autosize = 0, tempsize = 0, incstack = 0, save=0
   717 ;;
   718 ;; *************** function _main *****************
   719 ;; Defined at:
   720 ;;		line 9 in file "../src/master/main.c"
   721 ;; Parameters:    Size  Location     Type
   722 ;;		None
   723 ;; Auto vars:     Size  Location     Type
   724 ;;		None
   725 ;; Return value:  Size  Location     Type
   726 ;;                  1    wreg      void 
   727 ;; Registers used:
   728 ;;		wreg, fsr2l, fsr2h, status,2, status,0, prodl, prodh, cstack
   729 ;; Tracked objects:
   730 ;;		On entry : 0/0
   731 ;;		On exit  : 0/0
   732 ;;		Unchanged: 0/0
   733 ;; Data sizes:     COMRAM   BANK0   BANK1   BANK2   BANK3   BANK4   BANK5   BANK6   BANK7
   734 ;;      Params:         0       0       0       0       0       0       0       0       0
   735 ;;      Locals:         0       0       0       0       0       0       0       0       0
   736 ;;      Temps:          0       0       0       0       0       0       0       0       0
   737 ;;      Totals:         0       0       0       0       0       0       0       0       0
   738 ;;Total ram usage:        0 bytes
   739 ;; Hardware stack levels required when called:   13
   740 ;; This function calls:
   741 ;;		_APP_iddle
   742 ;;		_APP_tick
   743 ;;		_SYSTEM_Initialize
   744 ;;		_USBDeviceAttach
   745 ;;		_USBDeviceInit
   746 ;; This function is called by:
   747 ;;		Startup code after reset
   748 ;; This function uses a non-reentrant model
   749 ;;
   750                           
   751                           	psect	text0
   752  00234A                     __ptext0:
   753                           	opt stack 0
   754  00234A                     _main:
   755                           	opt stack 18
   756                           
   757                           ;main.c: 10: SYSTEM_Initialize(SYSTEM_STATE_USB_START);
   758                           
   759                           ; BSR set to: 0
   760                           ;incstack = 0
   761  00234A  0E00               	movlw	0
   762  00234C  EC6A  F00E         	call	_SYSTEM_Initialize
   763                           
   764                           ;main.c: 12: USBDeviceInit();
   765  002350  ECA2  F005         	call	_USBDeviceInit	;wreg free
   766                           
   767                           ;main.c: 13: USBDeviceAttach();
   768  002354  EC23  F011         	call	_USBDeviceAttach	;wreg free
   769  002358                     l4287:
   770                           
   771                           ;main.c: 16: ;
   772                           ;main.c: 37: if( USBDeviceState < CONFIGURED_STATE ) {
   773  002358  0E20               	movlw	32
   774  00235A  6021               	cpfslt	_USBDeviceState,c	;volatile
   775  00235C  D003               	goto	l22
   776                           
   777                           ;main.c: 38: APP_iddle();
   778  00235E  ECC9  F00A         	call	_APP_iddle	;wreg free
   779                           
   780                           ;main.c: 40: continue;
   781  002362  D7FA               	goto	l4287
   782  002364                     l22:
   783                           
   784                           ;main.c: 41: }
   785                           ;main.c: 47: if( UCONbits.SUSPND == 1 ) {
   786  002364  B26D               	btfsc	3949,1,c	;volatile
   787  002366  D7F8               	goto	l4287
   788                           
   789                           ;main.c: 50: }
   790                           ;main.c: 53: APP_tick();
   791                           
   792                           ;main.c: 49: continue;
   793  002368  ECE5  F00D         	call	_APP_tick	;wreg free
   794  00236C  D7F5               	goto	l4287
   795  00236E                     __end_of_main:
   796                           	opt stack 0
   797                           tblptru	equ	0xFF8
   798                           postinc0	equ	0xFEE
   799                           wreg	equ	0xFE8
   800                           
   801 ;; *************** function _USBDeviceInit *****************
   802 ;; Defined at:
   803 ;;		line 295 in file "../src/master/inc/src/usb_device.c"
   804 ;; Parameters:    Size  Location     Type
   805 ;;		None
   806 ;; Auto vars:     Size  Location     Type
   807 ;;  i               1    8[BANK0 ] unsigned char 
   808 ;; Return value:  Size  Location     Type
   809 ;;                  1    wreg      void 
   810 ;; Registers used:
   811 ;;		wreg, fsr2l, fsr2h, status,2, status,0, prodl, prodh, cstack
   812 ;; Tracked objects:
   813 ;;		On entry : 0/0
   814 ;;		On exit  : 0/0
   815 ;;		Unchanged: 0/0
   816 ;; Data sizes:     COMRAM   BANK0   BANK1   BANK2   BANK3   BANK4   BANK5   BANK6   BANK7
   817 ;;      Params:         0       0       0       0       0       0       0       0       0
   818 ;;      Locals:         0       1       0       0       0       0       0       0       0
   819 ;;      Temps:          0       0       0       0       0       0       0       0       0
   820 ;;      Totals:         0       1       0       0       0       0       0       0       0
   821 ;;Total ram usage:        1 bytes
   822 ;; Hardware stack levels used:    1
   823 ;; Hardware stack levels required when called:   11
   824 ;; This function calls:
   825 ;;		_memset
   826 ;; This function is called by:
   827 ;;		_main
   828 ;; This function uses a non-reentrant model
   829 ;;
   830                           
   831                           	psect	text1
   832  000B44                     __ptext1:
   833                           	opt stack 0
   834  000B44                     _USBDeviceInit:
   835                           	opt stack 19
   836                           
   837                           ;usb_device.c: 297: uint8_t i;
   838                           ;usb_device.c: 299: {PIE2bits.USBIE = 0;};
   839                           
   840                           ;incstack = 0
   841  000B44  9AA0               	bcf	4000,5,c	;volatile
   842                           
   843                           ;usb_device.c: 303: ;
   844                           ;usb_device.c: 306: {UEIR = 0;};
   845  000B46  0E00               	movlw	0
   846  000B48  6E6A               	movwf	3946,c	;volatile
   847                           
   848                           ;usb_device.c: 309: {UIR = 0;};
   849  000B4A  0E00               	movlw	0
   850  000B4C  6E68               	movwf	3944,c	;volatile
   851                           
   852                           ;usb_device.c: 312: UEP0 = 0;
   853  000B4E  0E00               	movlw	0
   854  000B50  6E70               	movwf	3952,c	;volatile
   855                           
   856                           ;usb_device.c: 314: memset((void*)&UEP1,0x00,(1));;
   857  000B52  0E71               	movlw	113
   858  000B54  0100               	movlb	0	; () banked
   859  000B56  6F7C               	movwf	memset@p1& (0+255),b
   860  000B58  0E0F               	movlw	15
   861  000B5A  0100               	movlb	0	; () banked
   862  000B5C  6F7D               	movwf	(memset@p1+1)& (0+255),b
   863  000B5E  0E00               	movlw	0
   864  000B60  0100               	movlb	0	; () banked
   865  000B62  6F7F               	movwf	(memset@c+1)& (0+255),b
   866  000B64  0E00               	movlw	0
   867  000B66  6F7E               	movwf	memset@c& (0+255),b
   868  000B68  0E00               	movlw	0
   869  000B6A  0100               	movlb	0	; () banked
   870  000B6C  6F81               	movwf	(memset@n+1)& (0+255),b
   871  000B6E  0E01               	movlw	1
   872  000B70  6F80               	movwf	memset@n& (0+255),b
   873  000B72  ECD7  F010         	call	_memset	;wreg free
   874                           
   875                           ;usb_device.c: 316: { UCFG = 0x10 | 0x00 | 0x04 | 0x02; UEIE = 0x9F; UIE = 0x39 | 0x40 |
      +                           0x02; };
   876  000B76  0E16               	movlw	22
   877  000B78  6E6F               	movwf	3951,c	;volatile
   878  000B7A  0E9F               	movlw	159
   879  000B7C  6E6B               	movwf	3947,c	;volatile
   880  000B7E  0E7B               	movlw	123
   881  000B80  6E69               	movwf	3945,c	;volatile
   882                           
   883                           ;usb_device.c: 319: ;
   884                           ;usb_device.c: 322: ;
   885                           ;usb_device.c: 325: for(i = 0; i < (sizeof(BDT)/sizeof(BDT_ENTRY)); i++)
   886  000B82  0E00               	movlw	0
   887  000B84  0100               	movlb	0	; () banked
   888  000B86  6F84               	movwf	USBDeviceInit@i& (0+255),b
   889  000B88                     l4145:
   890                           
   891                           ; BSR set to: 0
   892  000B88  0E07               	movlw	7
   893  000B8A  0100               	movlb	0	; () banked
   894  000B8C  6584               	cpfsgt	USBDeviceInit@i& (0+255),b
   895  000B8E  D001               	goto	l4149
   896  000B90  D010               	goto	l244
   897  000B92                     l4149:
   898                           
   899                           ; BSR set to: 0
   900                           ;usb_device.c: 326: {
   901                           ;usb_device.c: 327: BDT[i].Val = 0x00;
   902  000B92  0100               	movlb	0	; () banked
   903  000B94  5184               	movf	USBDeviceInit@i& (0+255),w,b
   904  000B96  0D04               	mullw	4
   905  000B98  0E00               	movlw	0
   906  000B9A  24F3               	addwf	prodl,w,c
   907  000B9C  6ED9               	movwf	fsr2l,c
   908  000B9E  0E04               	movlw	4
   909  000BA0  20F4               	addwfc	prodh,w,c
   910  000BA2  6EDA               	movwf	fsr2h,c
   911  000BA4  6ADE               	clrf	postinc2,c
   912  000BA6  6ADE               	clrf	postinc2,c
   913  000BA8  6ADE               	clrf	postinc2,c
   914  000BAA  6ADD               	clrf	postdec2,c
   915                           
   916                           ; BSR set to: 0
   917  000BAC  0100               	movlb	0	; () banked
   918  000BAE  2B84               	incf	USBDeviceInit@i& (0+255),f,b
   919  000BB0  D7EB               	goto	l4145
   920  000BB2                     l244:
   921                           
   922                           ; BSR set to: 0
   923                           ;usb_device.c: 328: }
   924                           ;usb_device.c: 331: UCONbits.PPBRST = 1;
   925  000BB2  8C6D               	bsf	3949,6,c	;volatile
   926                           
   927                           ; BSR set to: 0
   928                           ;usb_device.c: 334: UADDR = 0x00;
   929  000BB4  0E00               	movlw	0
   930  000BB6  6E6E               	movwf	3950,c	;volatile
   931                           
   932                           ; BSR set to: 0
   933                           ;usb_device.c: 337: UCONbits.PKTDIS = 0;
   934  000BB8  986D               	bcf	3949,4,c	;volatile
   935                           
   936                           ; BSR set to: 0
   937                           ;usb_device.c: 340: UCONbits.PPBRST = 0;
   938  000BBA  9C6D               	bcf	3949,6,c	;volatile
   939  000BBC                     l4161:
   940                           
   941                           ;usb_device.c: 344: {
   942                           ;usb_device.c: 345: (UIR &= 0xF7);
   943  000BBC  9668               	bcf	3944,3,c	;volatile
   944                           
   945                           ;usb_device.c: 347: inPipes[0].info.Val = 0;
   946  000BBE  0E00               	movlw	0
   947  000BC0  6E0C               	movwf	_inPipes+3,c	;volatile
   948                           
   949                           ;usb_device.c: 348: outPipes[0].info.Val = 0;
   950  000BC2  0E00               	movlw	0
   951  000BC4  6E04               	movwf	_outPipes+3,c	;volatile
   952                           
   953                           ;usb_device.c: 349: outPipes[0].wCount.Val = 0;
   954  000BC6  0E00               	movlw	0
   955  000BC8  6E06               	movwf	_outPipes+5,c	;volatile
   956  000BCA  0E00               	movlw	0
   957  000BCC  6E05               	movwf	_outPipes+4,c	;volatile
   958                           
   959                           ;usb_device.c: 350: }while(UIRbits.TRNIF == 1);
   960  000BCE  B668               	btfsc	3944,3,c	;volatile
   961  000BD0  D7F5               	goto	l4161
   962                           
   963                           ;usb_device.c: 354: USBStatusStageEnabledFlag1 = 1;
   964  000BD2  0E01               	movlw	1
   965  000BD4  6E22               	movwf	_USBStatusStageEnabledFlag1,c	;volatile
   966                           
   967                           ;usb_device.c: 355: USBStatusStageEnabledFlag2 = 1;
   968  000BD6  0E01               	movlw	1
   969  000BD8  6E23               	movwf	_USBStatusStageEnabledFlag2,c	;volatile
   970                           
   971                           ;usb_device.c: 357: USBDeferINDataStagePackets = 0;
   972  000BDA  0E00               	movlw	0
   973  000BDC  6E1E               	movwf	_USBDeferINDataStagePackets,c	;volatile
   974                           
   975                           ;usb_device.c: 358: USBDeferOUTDataStagePackets = 0;
   976  000BDE  0E00               	movlw	0
   977  000BE0  6E1F               	movwf	_USBDeferOUTDataStagePackets,c	;volatile
   978                           
   979                           ;usb_device.c: 359: USBBusIsSuspended = 0;
   980  000BE2  0E00               	movlw	0
   981  000BE4  6E1D               	movwf	_USBBusIsSuspended,c	;volatile
   982                           
   983                           ;usb_device.c: 363: for(i = 0; i < (uint8_t)(1+1u); i++)
   984  000BE6  0E00               	movlw	0
   985  000BE8  0100               	movlb	0	; () banked
   986  000BEA  6F84               	movwf	USBDeviceInit@i& (0+255),b
   987  000BEC                     l4173:
   988                           
   989                           ; BSR set to: 0
   990  000BEC  0E01               	movlw	1
   991  000BEE  0100               	movlb	0	; () banked
   992  000BF0  6584               	cpfsgt	USBDeviceInit@i& (0+255),b
   993  000BF2  D001               	goto	l4177
   994  000BF4  D033               	goto	l4183
   995  000BF6                     l4177:
   996                           
   997                           ; BSR set to: 0
   998                           ;usb_device.c: 364: {
   999                           ;usb_device.c: 365: pBDTEntryIn[i] = 0u;
  1000  000BF6  0100               	movlb	0	; () banked
  1001  000BF8  5184               	movf	USBDeviceInit@i& (0+255),w,b
  1002  000BFA  0D02               	mullw	2
  1003  000BFC  0E0F               	movlw	low _pBDTEntryIn
  1004  000BFE  24F3               	addwf	prodl,w,c
  1005  000C00  6ED9               	movwf	fsr2l,c
  1006  000C02  0E00               	movlw	high _pBDTEntryIn
  1007  000C04  20F4               	addwfc	prodh,w,c
  1008  000C06  6EDA               	movwf	fsr2h,c
  1009  000C08  0E00               	movlw	0
  1010  000C0A  6EDE               	movwf	postinc2,c
  1011  000C0C  0E00               	movlw	0
  1012  000C0E  6EDD               	movwf	postdec2,c
  1013                           
  1014                           ;usb_device.c: 366: pBDTEntryOut[i] = 0u;
  1015  000C10  0100               	movlb	0	; () banked
  1016  000C12  5184               	movf	USBDeviceInit@i& (0+255),w,b
  1017  000C14  0D02               	mullw	2
  1018  000C16  0E64               	movlw	low _pBDTEntryOut
  1019  000C18  24F3               	addwf	prodl,w,c
  1020  000C1A  6ED9               	movwf	fsr2l,c
  1021  000C1C  0E00               	movlw	high _pBDTEntryOut
  1022  000C1E  20F4               	addwfc	prodh,w,c
  1023  000C20  6EDA               	movwf	fsr2h,c
  1024  000C22  0E00               	movlw	0
  1025  000C24  6EDE               	movwf	postinc2,c
  1026  000C26  0E00               	movlw	0
  1027  000C28  6EDD               	movwf	postdec2,c
  1028                           
  1029                           ;usb_device.c: 367: ep_data_in[i].Val = 0u;
  1030  000C2A  0100               	movlb	0	; () banked
  1031  000C2C  5184               	movf	USBDeviceInit@i& (0+255),w,b
  1032  000C2E  0D01               	mullw	1
  1033  000C30  0E13               	movlw	low _ep_data_in
  1034  000C32  24F3               	addwf	prodl,w,c
  1035  000C34  6ED9               	movwf	fsr2l,c
  1036  000C36  0E00               	movlw	high _ep_data_in
  1037  000C38  20F4               	addwfc	prodh,w,c
  1038  000C3A  6EDA               	movwf	fsr2h,c
  1039  000C3C  0E00               	movlw	0
  1040  000C3E  6EDF               	movwf	indf2,c
  1041                           
  1042                           ;usb_device.c: 368: ep_data_out[i].Val = 0u;
  1043  000C40  0100               	movlb	0	; () banked
  1044  000C42  5184               	movf	USBDeviceInit@i& (0+255),w,b
  1045  000C44  0D01               	mullw	1
  1046  000C46  0E15               	movlw	low _ep_data_out
  1047  000C48  24F3               	addwf	prodl,w,c
  1048  000C4A  6ED9               	movwf	fsr2l,c
  1049  000C4C  0E00               	movlw	high _ep_data_out
  1050  000C4E  20F4               	addwfc	prodh,w,c
  1051  000C50  6EDA               	movwf	fsr2h,c
  1052  000C52  0E00               	movlw	0
  1053  000C54  6EDF               	movwf	indf2,c
  1054                           
  1055                           ; BSR set to: 0
  1056  000C56  0100               	movlb	0	; () banked
  1057  000C58  2B84               	incf	USBDeviceInit@i& (0+255),f,b
  1058  000C5A  D7C8               	goto	l4173
  1059  000C5C                     l4183:
  1060                           
  1061                           ; BSR set to: 0
  1062                           ;usb_device.c: 369: }
  1063                           ;usb_device.c: 372: pBDTEntryIn[0] = (volatile BDT_ENTRY*)&BDT[2];
  1064  000C5C  0E08               	movlw	8
  1065  000C5E  6E0F               	movwf	_pBDTEntryIn,c
  1066  000C60  0E04               	movlw	4
  1067  000C62  6E10               	movwf	_pBDTEntryIn+1,c
  1068                           
  1069                           ; BSR set to: 0
  1070                           ;usb_device.c: 374: UEP0 = 0x06|0x10;
  1071  000C64  0E16               	movlw	22
  1072  000C66  6E70               	movwf	3952,c	;volatile
  1073                           
  1074                           ; BSR set to: 0
  1075                           ;usb_device.c: 376: BDT[0].ADR = ((uint16_t)(&SetupPkt));
  1076  000C68  0E04               	movlw	4
  1077  000C6A  0104               	movlb	4	; () banked
  1078  000C6C  6F03               	movwf	3,b	;volatile
  1079  000C6E  0E20               	movlw	32
  1080  000C70  6F02               	movwf	2,b	;volatile
  1081                           
  1082                           ; BSR set to: 4
  1083                           ;usb_device.c: 377: BDT[0].CNT = 8;
  1084  000C72  0E08               	movlw	8
  1085  000C74  0104               	movlb	4	; () banked
  1086  000C76  6F01               	movwf	1,b	;volatile
  1087                           
  1088                           ; BSR set to: 4
  1089                           ;usb_device.c: 378: BDT[0].STAT.Val = 0x00|0x04;
  1090  000C78  0E04               	movlw	4
  1091  000C7A  0104               	movlb	4	; () banked
  1092  000C7C  6F00               	movwf	0,b	;volatile
  1093                           
  1094                           ; BSR set to: 4
  1095                           ;usb_device.c: 379: BDT[0].STAT.Val |= 0x80;
  1096  000C7E  0104               	movlb	4	; () banked
  1097  000C80  8F00               	bsf	0,7,b	;volatile
  1098                           
  1099                           ; BSR set to: 4
  1100                           ;usb_device.c: 382: USBActiveConfiguration = 0;
  1101  000C82  0E00               	movlw	0
  1102  000C84  6E29               	movwf	_USBActiveConfiguration,c	;volatile
  1103                           
  1104                           ; BSR set to: 4
  1105                           ;usb_device.c: 384: USB1msTickCount = 0;
  1106  000C86  0E00               	movlw	0
  1107  000C88  0100               	movlb	0	; () banked
  1108  000C8A  6F60               	movwf	_USB1msTickCount& (0+255),b	;volatile
  1109  000C8C  0E00               	movlw	0
  1110  000C8E  6F61               	movwf	(_USB1msTickCount+1)& (0+255),b	;volatile
  1111  000C90  0E00               	movlw	0
  1112  000C92  6F62               	movwf	(_USB1msTickCount+2)& (0+255),b	;volatile
  1113  000C94  0E00               	movlw	0
  1114  000C96  6F63               	movwf	(_USB1msTickCount+3)& (0+255),b	;volatile
  1115                           
  1116                           ; BSR set to: 0
  1117                           ;usb_device.c: 385: USBTicksSinceSuspendEnd = 0;
  1118  000C98  0E00               	movlw	0
  1119  000C9A  6E25               	movwf	_USBTicksSinceSuspendEnd,c	;volatile
  1120                           
  1121                           ; BSR set to: 0
  1122                           ;usb_device.c: 388: USBDeviceState = DETACHED_STATE;
  1123  000C9C  0E00               	movlw	0
  1124  000C9E  6E21               	movwf	_USBDeviceState,c	;volatile
  1125                           
  1126                           ; BSR set to: 0
  1127  000CA0  0012               	return		;funcret
  1128  000CA2                     __end_of_USBDeviceInit:
  1129                           	opt stack 0
  1130                           tblptru	equ	0xFF8
  1131                           prodh	equ	0xFF4
  1132                           prodl	equ	0xFF3
  1133                           postinc0	equ	0xFEE
  1134                           wreg	equ	0xFE8
  1135                           indf2	equ	0xFDF
  1136                           postinc2	equ	0xFDE
  1137                           postdec2	equ	0xFDD
  1138                           fsr2h	equ	0xFDA
  1139                           fsr2l	equ	0xFD9
  1140                           
  1141 ;; *************** function _memset *****************
  1142 ;; Defined at:
  1143 ;;		line 8 in file "C:\Program Files (x86)\Microchip\xc8\v1.36\sources\common\memset.c"
  1144 ;; Parameters:    Size  Location     Type
  1145 ;;  p1              2    0[BANK0 ] PTR void 
  1146 ;;		 -> USBAlternateInterface(1), BDT(32), UEP1(1), 
  1147 ;;  c               2    2[BANK0 ] int 
  1148 ;;  n               2    4[BANK0 ] unsigned int 
  1149 ;; Auto vars:     Size  Location     Type
  1150 ;;  p               2    6[BANK0 ] PTR unsigned char 
  1151 ;;		 -> USBAlternateInterface(1), BDT(32), UEP1(1), 
  1152 ;; Return value:  Size  Location     Type
  1153 ;;                  2    0[BANK0 ] PTR void 
  1154 ;; Registers used:
  1155 ;;		wreg, fsr2l, fsr2h, status,2, status,0
  1156 ;; Tracked objects:
  1157 ;;		On entry : 0/0
  1158 ;;		On exit  : 0/0
  1159 ;;		Unchanged: 0/0
  1160 ;; Data sizes:     COMRAM   BANK0   BANK1   BANK2   BANK3   BANK4   BANK5   BANK6   BANK7
  1161 ;;      Params:         0       6       0       0       0       0       0       0       0
  1162 ;;      Locals:         0       2       0       0       0       0       0       0       0
  1163 ;;      Temps:          0       0       0       0       0       0       0       0       0
  1164 ;;      Totals:         0       8       0       0       0       0       0       0       0
  1165 ;;Total ram usage:        8 bytes
  1166 ;; Hardware stack levels used:    1
  1167 ;; Hardware stack levels required when called:   10
  1168 ;; This function calls:
  1169 ;;		Nothing
  1170 ;; This function is called by:
  1171 ;;		_USBDeviceInit
  1172 ;; This function uses a non-reentrant model
  1173 ;;
  1174                           
  1175                           	psect	text2
  1176  0021AE                     __ptext2:
  1177                           	opt stack 0
  1178  0021AE                     _memset:
  1179                           	opt stack 19
  1180                           
  1181                           ; BSR set to: 0
  1182                           ;incstack = 0
  1183  0021AE  C07C  F082         	movff	memset@p1,memset@p
  1184  0021B2  C07D  F083         	movff	memset@p1+1,memset@p+1
  1185  0021B6  D009               	goto	l4021
  1186  0021B8                     l4017:
  1187  0021B8  C082  FFD9         	movff	memset@p,fsr2l
  1188  0021BC  C083  FFDA         	movff	memset@p+1,fsr2h
  1189  0021C0  C07E  FFDF         	movff	memset@c,indf2
  1190  0021C4  0100               	movlb	0	; () banked
  1191  0021C6  4B82               	infsnz	memset@p& (0+255),f,b
  1192  0021C8  2B83               	incf	(memset@p+1)& (0+255),f,b
  1193  0021CA                     l4021:
  1194  0021CA  0100               	movlb	0	; () banked
  1195  0021CC  0780               	decf	memset@n& (0+255),f,b
  1196  0021CE  A0D8               	btfss	status,0,c
  1197  0021D0  0781               	decf	(memset@n+1)& (0+255),f,b
  1198  0021D2  0100               	movlb	0	; () banked
  1199  0021D4  2980               	incf	memset@n& (0+255),w,b
  1200  0021D6  E1F0               	bnz	l4017
  1201  0021D8  0100               	movlb	0	; () banked
  1202  0021DA  2981               	incf	(memset@n+1)& (0+255),w,b
  1203  0021DC  B4D8               	btfsc	status,2,c
  1204  0021DE  0012               	return	
  1205  0021E0  D7EB               	goto	l4017
  1206  0021E2                     __end_of_memset:
  1207                           	opt stack 0
  1208                           tblptru	equ	0xFF8
  1209                           prodh	equ	0xFF4
  1210                           prodl	equ	0xFF3
  1211                           postinc0	equ	0xFEE
  1212                           wreg	equ	0xFE8
  1213                           indf2	equ	0xFDF
  1214                           postinc2	equ	0xFDE
  1215                           postdec2	equ	0xFDD
  1216                           fsr2h	equ	0xFDA
  1217                           fsr2l	equ	0xFD9
  1218                           status	equ	0xFD8
  1219                           
  1220 ;; *************** function _USBDeviceAttach *****************
  1221 ;; Defined at:
  1222 ;;		line 1370 in file "../src/master/inc/src/usb_device.c"
  1223 ;; Parameters:    Size  Location     Type
  1224 ;;		None
  1225 ;; Auto vars:     Size  Location     Type
  1226 ;;		None
  1227 ;; Return value:  Size  Location     Type
  1228 ;;                  1    wreg      void 
  1229 ;; Registers used:
  1230 ;;		wreg, status,2
  1231 ;; Tracked objects:
  1232 ;;		On entry : 0/0
  1233 ;;		On exit  : 0/0
  1234 ;;		Unchanged: 0/0
  1235 ;; Data sizes:     COMRAM   BANK0   BANK1   BANK2   BANK3   BANK4   BANK5   BANK6   BANK7
  1236 ;;      Params:         0       0       0       0       0       0       0       0       0
  1237 ;;      Locals:         0       0       0       0       0       0       0       0       0
  1238 ;;      Temps:          0       0       0       0       0       0       0       0       0
  1239 ;;      Totals:         0       0       0       0       0       0       0       0       0
  1240 ;;Total ram usage:        0 bytes
  1241 ;; Hardware stack levels used:    1
  1242 ;; Hardware stack levels required when called:   10
  1243 ;; This function calls:
  1244 ;;		Nothing
  1245 ;; This function is called by:
  1246 ;;		_main
  1247 ;; This function uses a non-reentrant model
  1248 ;;
  1249                           
  1250                           	psect	text3
  1251  002246                     __ptext3:
  1252                           	opt stack 0
  1253  002246                     _USBDeviceAttach:
  1254                           	opt stack 20
  1255                           
  1256                           ;usb_device.c: 1374: {
  1257                           ;usb_device.c: 1375: if(1 == 1)
  1258                           
  1259                           ; BSR set to: 0
  1260                           ;incstack = 0
  1261  002246  5021               	movf	_USBDeviceState,w,c	;volatile
  1262  002248  A4D8               	btfss	status,2,c
  1263  00224A  0012               	return	
  1264                           
  1265                           ;usb_device.c: 1376: {
  1266                           ;usb_device.c: 1378: UCON = 0;
  1267  00224C  0E00               	movlw	0
  1268  00224E  6E6D               	movwf	3949,c	;volatile
  1269                           
  1270                           ;usb_device.c: 1381: UIE = 0;
  1271  002250  0E00               	movlw	0
  1272  002252  6E69               	movwf	3945,c	;volatile
  1273                           
  1274                           ;usb_device.c: 1385: { UCFG = 0x10 | 0x00 | 0x04 | 0x02; UEIE = 0x9F; UIE = 0x39 | 0x40 
      +                          | 0x02; };
  1275  002254  0E16               	movlw	22
  1276  002256  6E6F               	movwf	3951,c	;volatile
  1277  002258  0E9F               	movlw	159
  1278  00225A  6E6B               	movwf	3947,c	;volatile
  1279  00225C  0E7B               	movlw	123
  1280  00225E  6E69               	movwf	3945,c	;volatile
  1281                           
  1282                           ;usb_device.c: 1387: {RCONbits.IPEN = 1;IPR2bits.USBIP = 1;PIE2bits.USBIE = 1;INTCONbits
      +                          .GIEH = 1;};
  1283  002260  8ED0               	bsf	4048,7,c	;volatile
  1284  002262  8AA2               	bsf	4002,5,c	;volatile
  1285  002264  8AA0               	bsf	4000,5,c	;volatile
  1286  002266  8EF2               	bsf	intcon,7,c	;volatile
  1287                           
  1288                           ;usb_device.c: 1390: while(!UCONbits.USBEN){UCONbits.USBEN = 1;}
  1289  002268  D001               	goto	l304
  1290  00226A                     l305:
  1291  00226A  866D               	bsf	3949,3,c	;volatile
  1292  00226C                     l304:
  1293  00226C  A66D               	btfss	3949,3,c	;volatile
  1294  00226E  D7FD               	goto	l305
  1295                           
  1296                           ;usb_device.c: 1393: USBDeviceState = ATTACHED_STATE;
  1297  002270  0E01               	movlw	1
  1298  002272  6E21               	movwf	_USBDeviceState,c	;volatile
  1299  002274  0012               	return	
  1300  002276                     __end_of_USBDeviceAttach:
  1301                           	opt stack 0
  1302                           tblptru	equ	0xFF8
  1303                           prodh	equ	0xFF4
  1304                           prodl	equ	0xFF3
  1305                           intcon	equ	0xFF2
  1306                           postinc0	equ	0xFEE
  1307                           wreg	equ	0xFE8
  1308                           indf2	equ	0xFDF
  1309                           postinc2	equ	0xFDE
  1310                           postdec2	equ	0xFDD
  1311                           fsr2h	equ	0xFDA
  1312                           fsr2l	equ	0xFD9
  1313                           status	equ	0xFD8
  1314                           
  1315 ;; *************** function _SYSTEM_Initialize *****************
  1316 ;; Defined at:
  1317 ;;		line 57 in file "../src/master/system.c"
  1318 ;; Parameters:    Size  Location     Type
  1319 ;;  state           1    wreg     enum E4544
  1320 ;; Auto vars:     Size  Location     Type
  1321 ;;  state           1    4[BANK0 ] enum E4544
  1322 ;;  n               1    5[BANK0 ] unsigned char 
  1323 ;; Return value:  Size  Location     Type
  1324 ;;                  1    wreg      void 
  1325 ;; Registers used:
  1326 ;;		wreg, status,2, status,0, cstack
  1327 ;; Tracked objects:
  1328 ;;		On entry : 0/0
  1329 ;;		On exit  : 0/0
  1330 ;;		Unchanged: 0/0
  1331 ;; Data sizes:     COMRAM   BANK0   BANK1   BANK2   BANK3   BANK4   BANK5   BANK6   BANK7
  1332 ;;      Params:         0       0       0       0       0       0       0       0       0
  1333 ;;      Locals:         0       2       0       0       0       0       0       0       0
  1334 ;;      Temps:          0       1       0       0       0       0       0       0       0
  1335 ;;      Totals:         0       3       0       0       0       0       0       0       0
  1336 ;;Total ram usage:        3 bytes
  1337 ;; Hardware stack levels used:    1
  1338 ;; Hardware stack levels required when called:   12
  1339 ;; This function calls:
  1340 ;;		_PWM_R_OpenPWM
  1341 ;;		_SPI_R_OpenSPI
  1342 ;; This function is called by:
  1343 ;;		_main
  1344 ;; This function uses a non-reentrant model
  1345 ;;
  1346                           
  1347                           	psect	text4
  1348  001CD4                     __ptext4:
  1349                           	opt stack 0
  1350  001CD4                     _SYSTEM_Initialize:
  1351                           	opt stack 18
  1352                           
  1353                           ;incstack = 0
  1354                           ;SYSTEM_Initialize@state stored from wreg
  1355  001CD4  0100               	movlb	0	; () banked
  1356  001CD6  6F80               	movwf	SYSTEM_Initialize@state& (0+255),b
  1357                           
  1358                           ;system.c: 58: switch(state) {
  1359  001CD8  D030               	goto	l4129
  1360  001CDA                     l561:
  1361                           
  1362                           ; BSR set to: 0
  1363                           ;system.c: 60: TRISA = 0xFF;
  1364  001CDA  6892               	setf	3986,c	;volatile
  1365                           
  1366                           ; BSR set to: 0
  1367                           ;system.c: 61: LATA = 0x00;
  1368  001CDC  0E00               	movlw	0
  1369  001CDE  6E89               	movwf	3977,c	;volatile
  1370                           
  1371                           ; BSR set to: 0
  1372                           ;system.c: 63: TRISB = 0xFF;
  1373  001CE0  6893               	setf	3987,c	;volatile
  1374                           
  1375                           ;system.c: 64: LATB = 0x00;
  1376  001CE2  0E00               	movlw	0
  1377  001CE4  6E8A               	movwf	3978,c	;volatile
  1378                           
  1379                           ; BSR set to: 0
  1380                           ;system.c: 65: TRISBbits.TRISB2 = 0;
  1381  001CE6  9493               	bcf	3987,2,c	;volatile
  1382                           
  1383                           ; BSR set to: 0
  1384                           ;system.c: 74: SPI_R_OpenSPI(0b00000001, 0b00000010, 0b00000000 );
  1385  001CE8  0E02               	movlw	2
  1386  001CEA  0100               	movlb	0	; () banked
  1387  001CEC  6F7C               	movwf	SPI_R_OpenSPI@bus_mode& (0+255),b
  1388  001CEE  0E00               	movlw	0
  1389  001CF0  0100               	movlb	0	; () banked
  1390  001CF2  6F7D               	movwf	SPI_R_OpenSPI@smp_phase& (0+255),b
  1391  001CF4  0E01               	movlw	1
  1392  001CF6  EC4C  F00F         	call	_SPI_R_OpenSPI
  1393                           
  1394                           ;system.c: 80: PWM_R_OpenPWM();
  1395  001CFA  ECF1  F010         	call	_PWM_R_OpenPWM	;wreg free
  1396                           
  1397                           ;system.c: 84: for(unsigned char n = 0; n < 10; n++)
  1398  001CFE  0E00               	movlw	0
  1399  001D00  0100               	movlb	0	; () banked
  1400  001D02  6F81               	movwf	SYSTEM_Initialize@n& (0+255),b
  1401  001D04                     l4115:
  1402                           
  1403                           ; BSR set to: 0
  1404  001D04  0E09               	movlw	9
  1405  001D06  0100               	movlb	0	; () banked
  1406  001D08  6581               	cpfsgt	SYSTEM_Initialize@n& (0+255),b
  1407  001D0A  D001               	goto	l4119
  1408  001D0C  D00B               	goto	l563
  1409  001D0E                     l4119:
  1410                           
  1411                           ; BSR set to: 0
  1412                           ;system.c: 85: _delay((unsigned long)((100)*(4000000/4000.0)));
  1413  001D0E  0E82               	movlw	130
  1414  001D10  0100               	movlb	0	; () banked
  1415  001D12  6F7F               	movwf	??_SYSTEM_Initialize& (0+255),b
  1416  001D14  0EDE               	movlw	222
  1417  001D16                     u3087:
  1418  001D16  2EE8               	decfsz	wreg,f,c
  1419  001D18  D7FE               	goto	u3087
  1420  001D1A  2F7F               	decfsz	??_SYSTEM_Initialize& (0+255),f,b
  1421  001D1C  D7FC               	goto	u3087
  1422  001D1E  0100               	movlb	0	; () banked
  1423  001D20  2B81               	incf	SYSTEM_Initialize@n& (0+255),f,b
  1424  001D22  D7F0               	goto	l4115
  1425  001D24                     l563:
  1426                           
  1427                           ; BSR set to: 0
  1428                           ;system.c: 87: LATBbits.LATB2 = 1;
  1429  001D24  848A               	bsf	3978,2,c	;volatile
  1430                           
  1431                           ; BSR set to: 0
  1432                           ;system.c: 88: _delay((unsigned long)((100)*(4000000/4000.0)));
  1433  001D26  0E82               	movlw	130
  1434  001D28  0100               	movlb	0	; () banked
  1435  001D2A  6F7F               	movwf	??_SYSTEM_Initialize& (0+255),b
  1436  001D2C  0EDE               	movlw	222
  1437  001D2E                     u3097:
  1438  001D2E  2EE8               	decfsz	wreg,f,c
  1439  001D30  D7FE               	goto	u3097
  1440  001D32  2F7F               	decfsz	??_SYSTEM_Initialize& (0+255),f,b
  1441  001D34  D7FC               	goto	u3097
  1442                           
  1443                           ;system.c: 89: LATBbits.LATB2 = 0;
  1444  001D36  948A               	bcf	3978,2,c	;volatile
  1445                           
  1446                           ;system.c: 98: }
  1447                           
  1448                           ;system.c: 97: break;
  1449                           
  1450                           ;system.c: 96: case SYSTEM_STATE_USB_RESUME:
  1451                           
  1452                           ;system.c: 94: break;
  1453                           
  1454                           ;system.c: 93: case SYSTEM_STATE_USB_SUSPEND:
  1455                           
  1456                           ;system.c: 91: break;
  1457  001D38  0012               	return	
  1458  001D3A                     l4129:
  1459  001D3A  0100               	movlb	0	; () banked
  1460  001D3C  5180               	movf	SYSTEM_Initialize@state& (0+255),w,b
  1461                           
  1462                           ; Switch size 1, requested type "space"
  1463                           ; Number of cases is 3, Range of values is 0 to 2
  1464                           ; switch strategies available:
  1465                           ; Name         Instructions Cycles
  1466                           ; simple_byte           10     6 (average)
  1467                           ;	Chosen strategy is simple_byte
  1468  001D3E  0A00               	xorlw	0	; case 0
  1469  001D40  B4D8               	btfsc	status,2,c
  1470  001D42  D7CB               	goto	l561
  1471  001D44  0A01               	xorlw	1	; case 1
  1472  001D46  B4D8               	btfsc	status,2,c
  1473  001D48  0012               	return	
  1474  001D4A  0A03               	xorlw	3	; case 2
  1475  001D4C  0012               	return	
  1476  001D4E                     __end_of_SYSTEM_Initialize:
  1477                           	opt stack 0
  1478                           tblptru	equ	0xFF8
  1479                           prodh	equ	0xFF4
  1480                           prodl	equ	0xFF3
  1481                           intcon	equ	0xFF2
  1482                           postinc0	equ	0xFEE
  1483                           wreg	equ	0xFE8
  1484                           indf2	equ	0xFDF
  1485                           postinc2	equ	0xFDE
  1486                           postdec2	equ	0xFDD
  1487                           fsr2h	equ	0xFDA
  1488                           fsr2l	equ	0xFD9
  1489                           status	equ	0xFD8
  1490                           
  1491 ;; *************** function _SPI_R_OpenSPI *****************
  1492 ;; Defined at:
  1493 ;;		line 3 in file "../../../../_ELECTRONIC/inc/spi_r.c"
  1494 ;; Parameters:    Size  Location     Type
  1495 ;;  sync_mode       1    wreg     unsigned char 
  1496 ;;  bus_mode        1    0[BANK0 ] unsigned char 
  1497 ;;  smp_phase       1    1[BANK0 ] unsigned char 
  1498 ;; Auto vars:     Size  Location     Type
  1499 ;;  sync_mode       1    2[BANK0 ] unsigned char 
  1500 ;; Return value:  Size  Location     Type
  1501 ;;                  1    wreg      void 
  1502 ;; Registers used:
  1503 ;;		wreg, status,2, status,0
  1504 ;; Tracked objects:
  1505 ;;		On entry : 0/0
  1506 ;;		On exit  : 0/0
  1507 ;;		Unchanged: 0/0
  1508 ;; Data sizes:     COMRAM   BANK0   BANK1   BANK2   BANK3   BANK4   BANK5   BANK6   BANK7
  1509 ;;      Params:         0       2       0       0       0       0       0       0       0
  1510 ;;      Locals:         0       1       0       0       0       0       0       0       0
  1511 ;;      Temps:          0       0       0       0       0       0       0       0       0
  1512 ;;      Totals:         0       3       0       0       0       0       0       0       0
  1513 ;;Total ram usage:        3 bytes
  1514 ;; Hardware stack levels used:    1
  1515 ;; Hardware stack levels required when called:   10
  1516 ;; This function calls:
  1517 ;;		Nothing
  1518 ;; This function is called by:
  1519 ;;		_SYSTEM_Initialize
  1520 ;; This function uses a non-reentrant model
  1521 ;;
  1522                           
  1523                           	psect	text5
  1524  001E98                     __ptext5:
  1525                           	opt stack 0
  1526  001E98                     _SPI_R_OpenSPI:
  1527                           	opt stack 19
  1528                           
  1529                           ;incstack = 0
  1530                           ;SPI_R_OpenSPI@sync_mode stored from wreg
  1531  001E98  0100               	movlb	0	; () banked
  1532  001E9A  6F7E               	movwf	SPI_R_OpenSPI@sync_mode& (0+255),b
  1533                           
  1534                           ;spi_r.c: 4: SSPSTAT &= 0x3F;
  1535  001E9C  0E3F               	movlw	63
  1536  001E9E  16C7               	andwf	4039,f,c	;volatile
  1537                           
  1538                           ;spi_r.c: 5: SSPCON1 = 0x00;
  1539  001EA0  0E00               	movlw	0
  1540  001EA2  6EC6               	movwf	4038,c	;volatile
  1541                           
  1542                           ;spi_r.c: 6: SSPCON1 |= sync_mode;
  1543  001EA4  0100               	movlb	0	; () banked
  1544  001EA6  517E               	movf	SPI_R_OpenSPI@sync_mode& (0+255),w,b
  1545  001EA8  12C6               	iorwf	4038,f,c	;volatile
  1546                           
  1547                           ; BSR set to: 0
  1548                           ;spi_r.c: 7: SSPSTAT |= smp_phase;
  1549  001EAA  0100               	movlb	0	; () banked
  1550  001EAC  517D               	movf	SPI_R_OpenSPI@smp_phase& (0+255),w,b
  1551  001EAE  12C7               	iorwf	4039,f,c	;volatile
  1552                           
  1553                           ;spi_r.c: 9: switch( bus_mode ) {
  1554  001EB0  D005               	goto	l4063
  1555  001EB2                     l682:
  1556                           
  1557                           ; BSR set to: 0
  1558                           ;spi_r.c: 11: SSPSTATbits.CKE = 1;
  1559  001EB2  8CC7               	bsf	4039,6,c	;volatile
  1560                           
  1561                           ;spi_r.c: 12: break;
  1562  001EB4  D014               	goto	l4067
  1563  001EB6                     l684:
  1564                           
  1565                           ; BSR set to: 0
  1566                           ;spi_r.c: 14: SSPSTATbits.CKE = 1;
  1567  001EB6  8CC7               	bsf	4039,6,c	;volatile
  1568  001EB8                     l685:
  1569                           
  1570                           ; BSR set to: 0
  1571                           ;spi_r.c: 18: SSPCON1bits.CKP = 1;
  1572  001EB8  88C6               	bsf	4038,4,c	;volatile
  1573                           
  1574                           ; BSR set to: 0
  1575                           ;spi_r.c: 22: }
  1576                           
  1577                           ; BSR set to: 0
  1578                           ;spi_r.c: 21: break;
  1579                           
  1580                           ;spi_r.c: 20: default:
  1581                           
  1582                           ;spi_r.c: 19: break;
  1583  001EBA  D011               	goto	l4067
  1584  001EBC                     l4063:
  1585                           
  1586                           ; BSR set to: 0
  1587  001EBC  0100               	movlb	0	; () banked
  1588  001EBE  517C               	movf	SPI_R_OpenSPI@bus_mode& (0+255),w,b
  1589                           
  1590                           ; Switch size 1, requested type "space"
  1591                           ; Number of cases is 3, Range of values is 0 to 3
  1592                           ; switch strategies available:
  1593                           ; Name         Instructions Cycles
  1594                           ; simple_byte           10     6 (average)
  1595                           ;	Chosen strategy is simple_byte
  1596  001EC0  0A00               	xorlw	0	; case 0
  1597  001EC2  B4D8               	btfsc	status,2,c
  1598  001EC4  D7F6               	goto	l682
  1599  001EC6  0A02               	xorlw	2	; case 2
  1600  001EC8  B4D8               	btfsc	status,2,c
  1601  001ECA  D7F5               	goto	l684
  1602  001ECC  0A01               	xorlw	1	; case 3
  1603  001ECE  B4D8               	btfsc	status,2,c
  1604  001ED0  D7F3               	goto	l685
  1605                           
  1606                           ; BSR set to: 0
  1607                           ;spi_r.c: 24: switch( sync_mode ) {
  1608  001ED2  D005               	goto	l4067
  1609  001ED4                     l688:
  1610                           
  1611                           ; BSR set to: 0
  1612                           ;spi_r.c: 26: TRISAbits.TRISA5 = 1;
  1613  001ED4  8A92               	bsf	3986,5,c	;volatile
  1614  001ED6                     l690:
  1615                           
  1616                           ; BSR set to: 0
  1617                           ;spi_r.c: 31: TRISBbits.TRISB1 = 1;
  1618  001ED6  8293               	bsf	3987,1,c	;volatile
  1619                           
  1620                           ;spi_r.c: 32: break;
  1621  001ED8  D00B               	goto	l689
  1622  001EDA                     l691:
  1623                           
  1624                           ; BSR set to: 0
  1625                           ;spi_r.c: 35: TRISBbits.TRISB1 = 0;
  1626  001EDA  9293               	bcf	3987,1,c	;volatile
  1627                           
  1628                           ; BSR set to: 0
  1629                           ;spi_r.c: 37: }
  1630                           
  1631                           ;spi_r.c: 36: break;
  1632  001EDC  D009               	goto	l689
  1633  001EDE                     l4067:
  1634                           
  1635                           ; BSR set to: 0
  1636  001EDE  0100               	movlb	0	; () banked
  1637  001EE0  517E               	movf	SPI_R_OpenSPI@sync_mode& (0+255),w,b
  1638                           
  1639                           ; Switch size 1, requested type "space"
  1640                           ; Number of cases is 2, Range of values is 4 to 5
  1641                           ; switch strategies available:
  1642                           ; Name         Instructions Cycles
  1643                           ; simple_byte            7     4 (average)
  1644                           ;	Chosen strategy is simple_byte
  1645  001EE2  0A04               	xorlw	4	; case 4
  1646  001EE4  B4D8               	btfsc	status,2,c
  1647  001EE6  D7F6               	goto	l688
  1648  001EE8  0A01               	xorlw	1	; case 5
  1649  001EEA  B4D8               	btfsc	status,2,c
  1650  001EEC  D7F4               	goto	l690
  1651  001EEE  D7F5               	goto	l691
  1652  001EF0                     l689:
  1653                           
  1654                           ; BSR set to: 0
  1655                           ;spi_r.c: 38: TRISBbits.TRISB0 = 1;
  1656  001EF0  8093               	bsf	3987,0,c	;volatile
  1657                           
  1658                           ;spi_r.c: 39: TRISCbits.TRISC7 = 0;
  1659  001EF2  9E94               	bcf	3988,7,c	;volatile
  1660                           
  1661                           ; BSR set to: 0
  1662                           ;spi_r.c: 41: SSPCON1 |= 0b00100000;
  1663  001EF4  8AC6               	bsf	4038,5,c	;volatile
  1664                           
  1665                           ; BSR set to: 0
  1666  001EF6  0012               	return		;funcret
  1667  001EF8                     __end_of_SPI_R_OpenSPI:
  1668                           	opt stack 0
  1669                           tblptru	equ	0xFF8
  1670                           prodh	equ	0xFF4
  1671                           prodl	equ	0xFF3
  1672                           intcon	equ	0xFF2
  1673                           postinc0	equ	0xFEE
  1674                           wreg	equ	0xFE8
  1675                           indf2	equ	0xFDF
  1676                           postinc2	equ	0xFDE
  1677                           postdec2	equ	0xFDD
  1678                           fsr2h	equ	0xFDA
  1679                           fsr2l	equ	0xFD9
  1680                           status	equ	0xFD8
  1681                           
  1682 ;; *************** function _PWM_R_OpenPWM *****************
  1683 ;; Defined at:
  1684 ;;		line 17 in file "../../../../_ELECTRONIC/inc/pwm_r.c"
  1685 ;; Parameters:    Size  Location     Type
  1686 ;;		None
  1687 ;; Auto vars:     Size  Location     Type
  1688 ;;		None
  1689 ;; Return value:  Size  Location     Type
  1690 ;;                  1    wreg      void 
  1691 ;; Registers used:
  1692 ;;		wreg, status,2, status,0, cstack
  1693 ;; Tracked objects:
  1694 ;;		On entry : 0/0
  1695 ;;		On exit  : 0/0
  1696 ;;		Unchanged: 0/0
  1697 ;; Data sizes:     COMRAM   BANK0   BANK1   BANK2   BANK3   BANK4   BANK5   BANK6   BANK7
  1698 ;;      Params:         0       0       0       0       0       0       0       0       0
  1699 ;;      Locals:         0       0       0       0       0       0       0       0       0
  1700 ;;      Temps:          0       0       0       0       0       0       0       0       0
  1701 ;;      Totals:         0       0       0       0       0       0       0       0       0
  1702 ;;Total ram usage:        0 bytes
  1703 ;; Hardware stack levels used:    1
  1704 ;; Hardware stack levels required when called:   11
  1705 ;; This function calls:
  1706 ;;		_PWM_R_setPWM1
  1707 ;;		_PWM_R_setPWM2
  1708 ;; This function is called by:
  1709 ;;		_SYSTEM_Initialize
  1710 ;; This function uses a non-reentrant model
  1711 ;;
  1712                           
  1713                           	psect	text6
  1714  0021E2                     __ptext6:
  1715                           	opt stack 0
  1716  0021E2                     _PWM_R_OpenPWM:
  1717                           	opt stack 18
  1718                           
  1719                           ;pwm_r.c: 19: PR2 = 0xFF;
  1720                           
  1721                           ; BSR set to: 0
  1722                           ;incstack = 0
  1723  0021E2  68CB               	setf	4043,c	;volatile
  1724                           
  1725                           ;pwm_r.c: 21: PWM_R_setPWM1(0x00);
  1726  0021E4  0E00               	movlw	0
  1727  0021E6  0100               	movlb	0	; () banked
  1728  0021E8  6F7D               	movwf	(PWM_R_setPWM1@val+1)& (0+255),b
  1729  0021EA  0E00               	movlw	0
  1730  0021EC  6F7C               	movwf	PWM_R_setPWM1@val& (0+255),b
  1731  0021EE  ECFB  F00F         	call	_PWM_R_setPWM1	;wreg free
  1732                           
  1733                           ;pwm_r.c: 22: PWM_R_setPWM2(0x00);
  1734  0021F2  0E00               	movlw	0
  1735  0021F4  0100               	movlb	0	; () banked
  1736  0021F6  6F7D               	movwf	(PWM_R_setPWM2@val+1)& (0+255),b
  1737  0021F8  0E00               	movlw	0
  1738  0021FA  6F7C               	movwf	PWM_R_setPWM2@val& (0+255),b
  1739  0021FC  ECD5  F00F         	call	_PWM_R_setPWM2	;wreg free
  1740                           
  1741                           ;pwm_r.c: 25: TRISCbits.RC1 = 0;
  1742  002200  9294               	bcf	3988,1,c	;volatile
  1743                           
  1744                           ;pwm_r.c: 26: TRISCbits.RC2 = 0;
  1745  002202  9494               	bcf	3988,2,c	;volatile
  1746                           
  1747                           ;pwm_r.c: 36: T2CKPS0 = 1;
  1748  002204  80CA               	bsf	4042,0,c	;volatile
  1749                           
  1750                           ;pwm_r.c: 37: T2CKPS1 = 1;
  1751  002206  82CA               	bsf	4042,1,c	;volatile
  1752                           
  1753                           ;pwm_r.c: 39: TMR2ON = 1;
  1754  002208  84CA               	bsf	4042,2,c	;volatile
  1755                           
  1756                           ;pwm_r.c: 42: CCP1M3 = 1;
  1757  00220A  86BD               	bsf	4029,3,c	;volatile
  1758                           
  1759                           ;pwm_r.c: 43: CCP1M2 = 1;
  1760  00220C  84BD               	bsf	4029,2,c	;volatile
  1761                           
  1762                           ;pwm_r.c: 45: CCP2M3 = 1;
  1763  00220E  86BA               	bsf	4026,3,c	;volatile
  1764                           
  1765                           ;pwm_r.c: 46: CCP2M2 = 1;
  1766  002210  84BA               	bsf	4026,2,c	;volatile
  1767  002212  0012               	return		;funcret
  1768  002214                     __end_of_PWM_R_OpenPWM:
  1769                           	opt stack 0
  1770                           tblptru	equ	0xFF8
  1771                           prodh	equ	0xFF4
  1772                           prodl	equ	0xFF3
  1773                           intcon	equ	0xFF2
  1774                           postinc0	equ	0xFEE
  1775                           wreg	equ	0xFE8
  1776                           indf2	equ	0xFDF
  1777                           postinc2	equ	0xFDE
  1778                           postdec2	equ	0xFDD
  1779                           fsr2h	equ	0xFDA
  1780                           fsr2l	equ	0xFD9
  1781                           status	equ	0xFD8
  1782                           
  1783 ;; *************** function _APP_tick *****************
  1784 ;; Defined at:
  1785 ;;		line 96 in file "../src/master/app_master.c"
  1786 ;; Parameters:    Size  Location     Type
  1787 ;;		None
  1788 ;; Auto vars:     Size  Location     Type
  1789 ;;		None
  1790 ;; Return value:  Size  Location     Type
  1791 ;;                  1    wreg      void 
  1792 ;; Registers used:
  1793 ;;		wreg, fsr2l, fsr2h, status,2, status,0, prodl, prodh, cstack
  1794 ;; Tracked objects:
  1795 ;;		On entry : 0/0
  1796 ;;		On exit  : 0/0
  1797 ;;		Unchanged: 0/0
  1798 ;; Data sizes:     COMRAM   BANK0   BANK1   BANK2   BANK3   BANK4   BANK5   BANK6   BANK7
  1799 ;;      Params:         0       0       0       0       0       0       0       0       0
  1800 ;;      Locals:         0       0       0       0       0       0       0       0       0
  1801 ;;      Temps:          0       0       0       0       0       0       0       0       0
  1802 ;;      Totals:         0       0       0       0       0       0       0       0       0
  1803 ;;Total ram usage:        0 bytes
  1804 ;; Hardware stack levels used:    1
  1805 ;; Hardware stack levels required when called:   11
  1806 ;; This function calls:
  1807 ;;		_PWM_R_setPWM1
  1808 ;;		_PWM_R_setPWM2
  1809 ;;		_SPI_R_putsSPI
  1810 ;;		_USBTransferOnePacket
  1811 ;; This function is called by:
  1812 ;;		_main
  1813 ;; This function uses a non-reentrant model
  1814 ;;
  1815                           
  1816                           	psect	text7
  1817  001BCA                     __ptext7:
  1818                           	opt stack 0
  1819  001BCA                     _APP_tick:
  1820                           	opt stack 19
  1821                           
  1822                           ;app_master.c: 97: if(((USBOutHandle != 0x0000) && ((*(volatile uint8_t*)USBOutHandle & 
      +                          0x80) != 0x00)) == 0) {
  1823                           
  1824                           ;incstack = 0
  1825  001BCA  0100               	movlb	0	; () banked
  1826  001BCC  516A               	movf	_USBOutHandle& (0+255),w,b
  1827  001BCE  0100               	movlb	0	; () banked
  1828  001BD0  116B               	iorwf	(_USBOutHandle+1)& (0+255),w,b
  1829  001BD2  B4D8               	btfsc	status,2,c
  1830  001BD4  D025               	goto	l4277
  1831                           
  1832                           ; BSR set to: 0
  1833  001BD6  C06A  FFD9         	movff	_USBOutHandle,fsr2l
  1834  001BDA  C06B  FFDA         	movff	_USBOutHandle+1,fsr2h
  1835  001BDE  0100               	movlb	0	; () banked
  1836  001BE0  BEDF               	btfsc	indf2,7,c
  1837  001BE2  0012               	return	
  1838  001BE4  D01D               	goto	l4277
  1839  001BE6                     l4263:
  1840                           
  1841                           ;app_master.c: 104: PWM_R_setPWM1(ReceivedDataBuffer[1]);
  1842  001BE6  C501 F07C          	movff	1281,PWM_R_setPWM1@val
  1843  001BEA  0100               	movlb	0	; () banked
  1844  001BEC  6B7D               	clrf	(PWM_R_setPWM1@val+1)& (0+255),b
  1845  001BEE  ECFB  F00F         	call	_PWM_R_setPWM1	;wreg free
  1846                           
  1847                           ;app_master.c: 105: PWM_R_setPWM2(ReceivedDataBuffer[2]);
  1848  001BF2  C502 F07C          	movff	1282,PWM_R_setPWM2@val
  1849  001BF6  0100               	movlb	0	; () banked
  1850  001BF8  6B7D               	clrf	(PWM_R_setPWM2@val+1)& (0+255),b
  1851  001BFA  ECD5  F00F         	call	_PWM_R_setPWM2	;wreg free
  1852                           
  1853                           ;app_master.c: 108: Left = ReceivedDataBuffer[3];
  1854  001BFE  C503 F076          	movff	1283,_Left
  1855                           
  1856                           ;app_master.c: 109: Right = ReceivedDataBuffer[4];
  1857  001C02  C504 F077          	movff	1284,_Right
  1858                           
  1859                           ;app_master.c: 110: LeftRight[0] = (Left >= 0 && Left <= 255) ? Left : 256;
  1860  001C06  C076  F078         	movff	_Left,_LeftRight
  1861                           
  1862                           ;app_master.c: 111: LeftRight[1] = (Right >= 0 && Right <= 255) ? Right : 256;
  1863  001C0A  C077  F079         	movff	_Right,_LeftRight+1
  1864                           
  1865                           ;app_master.c: 112: SPI_R_putsSPI(LeftRight);
  1866  001C0E  0E78               	movlw	low _LeftRight
  1867  001C10  0100               	movlb	0	; () banked
  1868  001C12  6F7C               	movwf	SPI_R_putsSPI@wrptr& (0+255),b
  1869  001C14  0E00               	movlw	high _LeftRight
  1870  001C16  0100               	movlb	0	; () banked
  1871  001C18  6F7D               	movwf	(SPI_R_putsSPI@wrptr+1)& (0+255),b
  1872  001C1A  EC7E  F011         	call	_SPI_R_putsSPI	;wreg free
  1873                           
  1874                           ;app_master.c: 154: }
  1875                           
  1876                           ;app_master.c: 114: break;
  1877  001C1E  D005               	goto	l4279
  1878  001C20                     l4277:
  1879  001C20  0105               	movlb	5	; () banked
  1880  001C22  5100               	movf	0,w,b
  1881                           
  1882                           ; Switch size 1, requested type "space"
  1883                           ; Number of cases is 1, Range of values is 84 to 84
  1884                           ; switch strategies available:
  1885                           ; Name         Instructions Cycles
  1886                           ; simple_byte            4     3 (average)
  1887                           ;	Chosen strategy is simple_byte
  1888  001C24  0A54               	xorlw	84	; case 84
  1889  001C26  B4D8               	btfsc	status,2,c
  1890  001C28  D7DE               	goto	l4263
  1891  001C2A                     l4279:
  1892                           
  1893                           ;app_master.c: 157: USBOutHandle = USBTransferOnePacket(1,0,(uint8_t*)&ReceivedDataBuffe
      +                          r,64);
  1894  001C2A  0E00               	movlw	0
  1895  001C2C  0100               	movlb	0	; () banked
  1896  001C2E  6F7C               	movwf	USBTransferOnePacket@dir& (0+255),b
  1897  001C30  0E00               	movlw	0
  1898  001C32  0100               	movlb	0	; () banked
  1899  001C34  6F7D               	movwf	USBTransferOnePacket@data& (0+255),b
  1900  001C36  0E05               	movlw	5
  1901  001C38  0100               	movlb	0	; () banked
  1902  001C3A  6F7E               	movwf	(USBTransferOnePacket@data+1)& (0+255),b
  1903  001C3C  0E40               	movlw	64
  1904  001C3E  0100               	movlb	0	; () banked
  1905  001C40  6F7F               	movwf	USBTransferOnePacket@len& (0+255),b
  1906  001C42  0E01               	movlw	1
  1907  001C44  EC5D  F00A         	call	_USBTransferOnePacket
  1908  001C48  C07C  F06A         	movff	?_USBTransferOnePacket,_USBOutHandle
  1909  001C4C  C07D  F06B         	movff	?_USBTransferOnePacket+1,_USBOutHandle+1
  1910  001C50  0012               	return	
  1911  001C52                     __end_of_APP_tick:
  1912                           	opt stack 0
  1913                           tblptru	equ	0xFF8
  1914                           prodh	equ	0xFF4
  1915                           prodl	equ	0xFF3
  1916                           intcon	equ	0xFF2
  1917                           postinc0	equ	0xFEE
  1918                           wreg	equ	0xFE8
  1919                           indf2	equ	0xFDF
  1920                           postinc2	equ	0xFDE
  1921                           postdec2	equ	0xFDD
  1922                           fsr2h	equ	0xFDA
  1923                           fsr2l	equ	0xFD9
  1924                           status	equ	0xFD8
  1925                           
  1926 ;; *************** function _USBTransferOnePacket *****************
  1927 ;; Defined at:
  1928 ;;		line 1013 in file "../src/master/inc/src/usb_device.c"
  1929 ;; Parameters:    Size  Location     Type
  1930 ;;  ep              1    wreg     unsigned char 
  1931 ;;  dir             1    0[BANK0 ] unsigned char 
  1932 ;;  data            2    1[BANK0 ] PTR unsigned char 
  1933 ;;		 -> ReceivedDataBuffer(64), 
  1934 ;;  len             1    3[BANK0 ] unsigned char 
  1935 ;; Auto vars:     Size  Location     Type
  1936 ;;  ep              1    4[BANK0 ] unsigned char 
  1937 ;;  handle          2    5[BANK0 ] PTR volatile struct __BD
  1938 ;;		 -> NULL(0), BDT(32), 
  1939 ;; Return value:  Size  Location     Type
  1940 ;;                  2    0[BANK0 ] PTR void 
  1941 ;; Registers used:
  1942 ;;		wreg, fsr2l, fsr2h, status,2, status,0, prodl, prodh
  1943 ;; Tracked objects:
  1944 ;;		On entry : 0/0
  1945 ;;		On exit  : 0/0
  1946 ;;		Unchanged: 0/0
  1947 ;; Data sizes:     COMRAM   BANK0   BANK1   BANK2   BANK3   BANK4   BANK5   BANK6   BANK7
  1948 ;;      Params:         0       4       0       0       0       0       0       0       0
  1949 ;;      Locals:         0       3       0       0       0       0       0       0       0
  1950 ;;      Temps:          0       0       0       0       0       0       0       0       0
  1951 ;;      Totals:         0       7       0       0       0       0       0       0       0
  1952 ;;Total ram usage:        7 bytes
  1953 ;; Hardware stack levels used:    1
  1954 ;; Hardware stack levels required when called:   10
  1955 ;; This function calls:
  1956 ;;		Nothing
  1957 ;; This function is called by:
  1958 ;;		_APP_tick
  1959 ;; This function uses a non-reentrant model
  1960 ;;
  1961                           
  1962                           	psect	text8
  1963  0014BA                     __ptext8:
  1964                           	opt stack 0
  1965  0014BA                     _USBTransferOnePacket:
  1966                           	opt stack 19
  1967                           
  1968                           ;incstack = 0
  1969                           ;USBTransferOnePacket@ep stored from wreg
  1970  0014BA  0100               	movlb	0	; () banked
  1971  0014BC  6F80               	movwf	USBTransferOnePacket@ep& (0+255),b
  1972                           
  1973                           ;usb_device.c: 1015: volatile BDT_ENTRY* handle;
  1974                           ;usb_device.c: 1018: if(dir != 0)
  1975  0014BE  0100               	movlb	0	; () banked
  1976  0014C0  517C               	movf	USBTransferOnePacket@dir& (0+255),w,b
  1977  0014C2  0100               	movlb	0	; () banked
  1978  0014C4  B4D8               	btfsc	status,2,c
  1979  0014C6  D008               	goto	l4027
  1980                           
  1981                           ; BSR set to: 0
  1982                           ;usb_device.c: 1019: {
  1983                           ;usb_device.c: 1021: handle = pBDTEntryIn[ep];
  1984  0014C8  0100               	movlb	0	; () banked
  1985  0014CA  5180               	movf	USBTransferOnePacket@ep& (0+255),w,b
  1986  0014CC  0D02               	mullw	2
  1987  0014CE  0E0F               	movlw	low _pBDTEntryIn
  1988  0014D0  24F3               	addwf	prodl,w,c
  1989  0014D2  6ED9               	movwf	fsr2l,c
  1990  0014D4  0E00               	movlw	high _pBDTEntryIn
  1991  0014D6  D007               	goto	L1
  1992  0014D8                     l4027:
  1993                           
  1994                           ; BSR set to: 0
  1995                           ;usb_device.c: 1023: else
  1996                           ;usb_device.c: 1024: {
  1997                           ;usb_device.c: 1026: handle = pBDTEntryOut[ep];
  1998  0014D8  0100               	movlb	0	; () banked
  1999  0014DA  5180               	movf	USBTransferOnePacket@ep& (0+255),w,b
  2000  0014DC  0D02               	mullw	2
  2001  0014DE  0E64               	movlw	low _pBDTEntryOut
  2002  0014E0  24F3               	addwf	prodl,w,c
  2003  0014E2  6ED9               	movwf	fsr2l,c
  2004  0014E4  0E00               	movlw	high _pBDTEntryOut
  2005  0014E6                     L1:
  2006  0014E6  20F4               	addwfc	prodh,w,c
  2007  0014E8  6EDA               	movwf	fsr2h,c
  2008  0014EA  CFDE F081          	movff	postinc2,USBTransferOnePacket@handle
  2009  0014EE  CFDD F082          	movff	postdec2,USBTransferOnePacket@handle+1
  2010                           
  2011                           ; BSR set to: 0
  2012                           ;usb_device.c: 1027: }
  2013                           ;usb_device.c: 1031: if(handle == 0)
  2014                           
  2015                           ; BSR set to: 0
  2016  0014F2  0100               	movlb	0	; () banked
  2017  0014F4  5181               	movf	USBTransferOnePacket@handle& (0+255),w,b
  2018  0014F6  0100               	movlb	0	; () banked
  2019  0014F8  1182               	iorwf	(USBTransferOnePacket@handle+1)& (0+255),w,b
  2020  0014FA  A4D8               	btfss	status,2,c
  2021  0014FC  D007               	goto	l4035
  2022                           
  2023                           ; BSR set to: 0
  2024                           ;usb_device.c: 1032: {
  2025                           ;usb_device.c: 1033: return 0;
  2026  0014FE  0E00               	movlw	0
  2027  001500  0100               	movlb	0	; () banked
  2028  001502  6F7C               	movwf	?_USBTransferOnePacket& (0+255),b
  2029  001504  0E00               	movlw	0
  2030  001506  0100               	movlb	0	; () banked
  2031  001508  6F7D               	movwf	(?_USBTransferOnePacket+1)& (0+255),b
  2032                           
  2033                           ; BSR set to: 0
  2034  00150A  0012               	return	
  2035  00150C                     l4035:
  2036                           
  2037                           ; BSR set to: 0
  2038                           ;usb_device.c: 1034: }
  2039                           ;usb_device.c: 1047: handle->ADR = ((uint16_t)(data));
  2040  00150C  0100               	movlb	0	; () banked
  2041  00150E  EE20 F002          	lfsr	2,2
  2042  001512  5181               	movf	USBTransferOnePacket@handle& (0+255),w,b
  2043  001514  26D9               	addwf	fsr2l,f,c
  2044  001516  5182               	movf	(USBTransferOnePacket@handle+1)& (0+255),w,b
  2045  001518  22DA               	addwfc	fsr2h,f,c
  2046  00151A  C07D  FFDE         	movff	USBTransferOnePacket@data,postinc2
  2047  00151E  C07E  FFDD         	movff	USBTransferOnePacket@data+1,postdec2
  2048                           
  2049                           ;usb_device.c: 1048: handle->CNT = len;
  2050  001522  0100               	movlb	0	; () banked
  2051  001524  EE20 F001          	lfsr	2,1
  2052  001528  5181               	movf	USBTransferOnePacket@handle& (0+255),w,b
  2053  00152A  26D9               	addwf	fsr2l,f,c
  2054  00152C  5182               	movf	(USBTransferOnePacket@handle+1)& (0+255),w,b
  2055  00152E  22DA               	addwfc	fsr2h,f,c
  2056  001530  C07F  FFDF         	movff	USBTransferOnePacket@len,indf2
  2057                           
  2058                           ; BSR set to: 0
  2059                           ;usb_device.c: 1049: handle->STAT.Val &= 0x40;
  2060  001534  C081  FFD9         	movff	USBTransferOnePacket@handle,fsr2l
  2061  001538  C082  FFDA         	movff	USBTransferOnePacket@handle+1,fsr2h
  2062  00153C  0E40               	movlw	64
  2063  00153E  16DF               	andwf	indf2,f,c
  2064                           
  2065                           ; BSR set to: 0
  2066                           ;usb_device.c: 1050: handle->STAT.Val |= (0x08 & 0x08);
  2067  001540  C081  FFD9         	movff	USBTransferOnePacket@handle,fsr2l
  2068  001544  C082  FFDA         	movff	USBTransferOnePacket@handle+1,fsr2h
  2069  001548  0E00               	movlw	0
  2070  00154A  86DB               	bsf	plusw2,3,c
  2071                           
  2072                           ; BSR set to: 0
  2073                           ;usb_device.c: 1051: handle->STAT.Val |= 0x80;
  2074  00154C  C081  FFD9         	movff	USBTransferOnePacket@handle,fsr2l
  2075  001550  C082  FFDA         	movff	USBTransferOnePacket@handle+1,fsr2h
  2076  001554  0E00               	movlw	0
  2077  001556  8EDB               	bsf	plusw2,7,c
  2078                           
  2079                           ; BSR set to: 0
  2080                           ;usb_device.c: 1054: if(dir != 0)
  2081  001558  0100               	movlb	0	; () banked
  2082  00155A  517C               	movf	USBTransferOnePacket@dir& (0+255),w,b
  2083  00155C  0100               	movlb	0	; () banked
  2084  00155E  B4D8               	btfsc	status,2,c
  2085  001560  D008               	goto	l4047
  2086                           
  2087                           ; BSR set to: 0
  2088                           ;usb_device.c: 1055: {
  2089                           ;usb_device.c: 1057: {((uint8_t_VAL*)&pBDTEntryIn[ep])->Val ^= 0x0004;};
  2090  001562  0100               	movlb	0	; () banked
  2091  001564  5180               	movf	USBTransferOnePacket@ep& (0+255),w,b
  2092  001566  0D02               	mullw	2
  2093  001568  0E0F               	movlw	low _pBDTEntryIn
  2094  00156A  24F3               	addwf	prodl,w,c
  2095  00156C  6ED9               	movwf	fsr2l,c
  2096  00156E  0E00               	movlw	high _pBDTEntryIn
  2097  001570  D007               	goto	L2
  2098  001572                     l4047:
  2099                           
  2100                           ; BSR set to: 0
  2101                           ;usb_device.c: 1059: else
  2102                           ;usb_device.c: 1060: {
  2103                           ;usb_device.c: 1062: {((uint8_t_VAL*)&pBDTEntryOut[ep])->Val ^= 0x0004;};
  2104  001572  0100               	movlb	0	; () banked
  2105  001574  5180               	movf	USBTransferOnePacket@ep& (0+255),w,b
  2106  001576  0D02               	mullw	2
  2107  001578  0E64               	movlw	low _pBDTEntryOut
  2108  00157A  24F3               	addwf	prodl,w,c
  2109  00157C  6ED9               	movwf	fsr2l,c
  2110  00157E  0E00               	movlw	high _pBDTEntryOut
  2111  001580                     L2:
  2112  001580  20F4               	addwfc	prodh,w,c
  2113  001582  6EDA               	movwf	fsr2h,c
  2114  001584  0E04               	movlw	4
  2115  001586  1ADF               	xorwf	indf2,f,c
  2116                           
  2117                           ; BSR set to: 0
  2118                           ;usb_device.c: 1063: }
  2119                           ;usb_device.c: 1064: return (void*)handle;
  2120                           
  2121                           ; BSR set to: 0
  2122  001588  C081  F07C         	movff	USBTransferOnePacket@handle,?_USBTransferOnePacket
  2123  00158C  C082  F07D         	movff	USBTransferOnePacket@handle+1,?_USBTransferOnePacket+1
  2124  001590  0012               	return	
  2125  001592                     __end_of_USBTransferOnePacket:
  2126                           	opt stack 0
  2127                           tblptru	equ	0xFF8
  2128                           prodh	equ	0xFF4
  2129                           prodl	equ	0xFF3
  2130                           intcon	equ	0xFF2
  2131                           postinc0	equ	0xFEE
  2132                           wreg	equ	0xFE8
  2133                           indf2	equ	0xFDF
  2134                           postinc2	equ	0xFDE
  2135                           postdec2	equ	0xFDD
  2136                           plusw2	equ	0xFDB
  2137                           fsr2h	equ	0xFDA
  2138                           fsr2l	equ	0xFD9
  2139                           status	equ	0xFD8
  2140                           
  2141 ;; *************** function _APP_iddle *****************
  2142 ;; Defined at:
  2143 ;;		line 69 in file "../src/master/app_master.c"
  2144 ;; Parameters:    Size  Location     Type
  2145 ;;		None
  2146 ;; Auto vars:     Size  Location     Type
  2147 ;;  n               1    4[BANK0 ] unsigned char 
  2148 ;; Return value:  Size  Location     Type
  2149 ;;                  2   10[None  ] int 
  2150 ;; Registers used:
  2151 ;;		wreg, fsr2l, fsr2h, status,2, status,0, cstack
  2152 ;; Tracked objects:
  2153 ;;		On entry : 0/0
  2154 ;;		On exit  : 0/0
  2155 ;;		Unchanged: 0/0
  2156 ;; Data sizes:     COMRAM   BANK0   BANK1   BANK2   BANK3   BANK4   BANK5   BANK6   BANK7
  2157 ;;      Params:         0       0       0       0       0       0       0       0       0
  2158 ;;      Locals:         0       1       0       0       0       0       0       0       0
  2159 ;;      Temps:          0       1       0       0       0       0       0       0       0
  2160 ;;      Totals:         0       2       0       0       0       0       0       0       0
  2161 ;;Total ram usage:        2 bytes
  2162 ;; Hardware stack levels used:    1
  2163 ;; Hardware stack levels required when called:   11
  2164 ;; This function calls:
  2165 ;;		_PWM_R_setPWM1
  2166 ;;		_PWM_R_setPWM2
  2167 ;;		_SPI_R_putsSPI
  2168 ;; This function is called by:
  2169 ;;		_main
  2170 ;; This function uses a non-reentrant model
  2171 ;;
  2172                           
  2173                           	psect	text9
  2174  001592                     __ptext9:
  2175                           	opt stack 0
  2176  001592                     _APP_iddle:
  2177                           	opt stack 19
  2178                           
  2179                           ;app_master.c: 70: PWM_R_setPWM1(currIddlePwm1);
  2180                           
  2181                           ; BSR set to: 0
  2182                           ;incstack = 0
  2183  001592  C06C  F07C         	movff	_currIddlePwm1,PWM_R_setPWM1@val
  2184  001596  C06D  F07D         	movff	_currIddlePwm1+1,PWM_R_setPWM1@val+1
  2185  00159A  ECFB  F00F         	call	_PWM_R_setPWM1	;wreg free
  2186                           
  2187                           ;app_master.c: 71: PWM_R_setPWM2(currIddlePwm2);
  2188  00159E  C06E  F07C         	movff	_currIddlePwm2,PWM_R_setPWM2@val
  2189  0015A2  C06F  F07D         	movff	_currIddlePwm2+1,PWM_R_setPWM2@val+1
  2190  0015A6  ECD5  F00F         	call	_PWM_R_setPWM2	;wreg free
  2191                           
  2192                           ;app_master.c: 74: Left = currIddlePwm3;
  2193  0015AA  C070  F076         	movff	_currIddlePwm3,_Left
  2194                           
  2195                           ;app_master.c: 75: Right = currIddlePwm4;
  2196  0015AE  C072  F077         	movff	_currIddlePwm4,_Right
  2197                           
  2198                           ;app_master.c: 76: LeftRight[0] = (Left >= 0 && Left <= 255) ? Left : 256;
  2199  0015B2  C076  F078         	movff	_Left,_LeftRight
  2200                           
  2201                           ;app_master.c: 77: LeftRight[1] = (Right >= 0 && Right <= 255) ? Right : 256;
  2202  0015B6  C077  F079         	movff	_Right,_LeftRight+1
  2203                           
  2204                           ;app_master.c: 78: SPI_R_putsSPI(LeftRight);
  2205  0015BA  0E78               	movlw	low _LeftRight
  2206  0015BC  0100               	movlb	0	; () banked
  2207  0015BE  6F7C               	movwf	SPI_R_putsSPI@wrptr& (0+255),b
  2208  0015C0  0E00               	movlw	high _LeftRight
  2209  0015C2  0100               	movlb	0	; () banked
  2210  0015C4  6F7D               	movwf	(SPI_R_putsSPI@wrptr+1)& (0+255),b
  2211  0015C6  EC7E  F011         	call	_SPI_R_putsSPI	;wreg free
  2212                           
  2213                           ;app_master.c: 80: for(unsigned char n=0; n < 1; n++)
  2214  0015CA  0E00               	movlw	0
  2215  0015CC  0100               	movlb	0	; () banked
  2216  0015CE  6F80               	movwf	APP_iddle@n& (0+255),b
  2217  0015D0                     l4231:
  2218                           
  2219                           ; BSR set to: 0
  2220  0015D0  0100               	movlb	0	; () banked
  2221  0015D2  5180               	movf	APP_iddle@n& (0+255),w,b
  2222  0015D4  0100               	movlb	0	; () banked
  2223  0015D6  A4D8               	btfss	status,2,c
  2224  0015D8  D00C               	goto	l4241
  2225                           
  2226                           ; BSR set to: 0
  2227                           ;app_master.c: 81: _delay((unsigned long)((50)*(4000000/4000.0)));
  2228                           
  2229                           ; BSR set to: 0
  2230                           
  2231                           ; BSR set to: 0
  2232  0015DA  0E41               	movlw	65
  2233  0015DC  0100               	movlb	0	; () banked
  2234  0015DE  6F7F               	movwf	??_APP_iddle& (0+255),b
  2235  0015E0  0EEE               	movlw	238
  2236  0015E2                     u3107:
  2237  0015E2  2EE8               	decfsz	wreg,f,c
  2238  0015E4  D7FE               	goto	u3107
  2239  0015E6  2F7F               	decfsz	??_APP_iddle& (0+255),f,b
  2240  0015E8  D7FC               	goto	u3107
  2241  0015EA  D000               	nop2	
  2242  0015EC  0100               	movlb	0	; () banked
  2243  0015EE  2B80               	incf	APP_iddle@n& (0+255),f,b
  2244  0015F0  D7EF               	goto	l4231
  2245  0015F2                     l4241:
  2246                           
  2247                           ; BSR set to: 0
  2248                           ;app_master.c: 84: currIddlePwm1++;
  2249  0015F2  0100               	movlb	0	; () banked
  2250  0015F4  4B6C               	infsnz	_currIddlePwm1& (0+255),f,b
  2251  0015F6  2B6D               	incf	(_currIddlePwm1+1)& (0+255),f,b
  2252                           
  2253                           ;app_master.c: 85: currIddlePwm2++;
  2254  0015F8  0100               	movlb	0	; () banked
  2255  0015FA  4B6E               	infsnz	_currIddlePwm2& (0+255),f,b
  2256  0015FC  2B6F               	incf	(_currIddlePwm2+1)& (0+255),f,b
  2257                           
  2258                           ;app_master.c: 86: currIddlePwm3++;
  2259  0015FE  0100               	movlb	0	; () banked
  2260  001600  4B70               	infsnz	_currIddlePwm3& (0+255),f,b
  2261  001602  2B71               	incf	(_currIddlePwm3+1)& (0+255),f,b
  2262                           
  2263                           ;app_master.c: 87: currIddlePwm4++;
  2264  001604  0100               	movlb	0	; () banked
  2265  001606  4B72               	infsnz	_currIddlePwm4& (0+255),f,b
  2266  001608  2B73               	incf	(_currIddlePwm4+1)& (0+255),f,b
  2267                           
  2268                           ; BSR set to: 0
  2269                           ;app_master.c: 88: if(currIddlePwm1 == 256) currIddlePwm1 = 0;
  2270  00160A  0100               	movlb	0	; () banked
  2271  00160C  056D               	decf	(_currIddlePwm1+1)& (0+255),w,b
  2272  00160E  0100               	movlb	0	; () banked
  2273  001610  116C               	iorwf	_currIddlePwm1& (0+255),w,b
  2274  001612  A4D8               	btfss	status,2,c
  2275  001614  D005               	goto	l4247
  2276                           
  2277                           ; BSR set to: 0
  2278  001616  0E00               	movlw	0
  2279  001618  0100               	movlb	0	; () banked
  2280  00161A  6F6D               	movwf	(_currIddlePwm1+1)& (0+255),b
  2281  00161C  0E00               	movlw	0
  2282  00161E  6F6C               	movwf	_currIddlePwm1& (0+255),b
  2283  001620                     l4247:
  2284                           
  2285                           ; BSR set to: 0
  2286                           ;app_master.c: 89: if(currIddlePwm2 == 256) currIddlePwm2 = 0;
  2287  001620  0100               	movlb	0	; () banked
  2288  001622  056F               	decf	(_currIddlePwm2+1)& (0+255),w,b
  2289  001624  0100               	movlb	0	; () banked
  2290  001626  116E               	iorwf	_currIddlePwm2& (0+255),w,b
  2291  001628  A4D8               	btfss	status,2,c
  2292  00162A  D005               	goto	l4251
  2293                           
  2294                           ; BSR set to: 0
  2295  00162C  0E00               	movlw	0
  2296  00162E  0100               	movlb	0	; () banked
  2297  001630  6F6F               	movwf	(_currIddlePwm2+1)& (0+255),b
  2298  001632  0E00               	movlw	0
  2299  001634  6F6E               	movwf	_currIddlePwm2& (0+255),b
  2300  001636                     l4251:
  2301                           
  2302                           ; BSR set to: 0
  2303                           ;app_master.c: 90: if(currIddlePwm3 == 256) currIddlePwm3 = 0;
  2304  001636  0100               	movlb	0	; () banked
  2305  001638  0571               	decf	(_currIddlePwm3+1)& (0+255),w,b
  2306  00163A  0100               	movlb	0	; () banked
  2307  00163C  1170               	iorwf	_currIddlePwm3& (0+255),w,b
  2308  00163E  A4D8               	btfss	status,2,c
  2309  001640  D005               	goto	l4255
  2310                           
  2311                           ; BSR set to: 0
  2312  001642  0E00               	movlw	0
  2313  001644  0100               	movlb	0	; () banked
  2314  001646  6F71               	movwf	(_currIddlePwm3+1)& (0+255),b
  2315  001648  0E00               	movlw	0
  2316  00164A  6F70               	movwf	_currIddlePwm3& (0+255),b
  2317  00164C                     l4255:
  2318                           
  2319                           ; BSR set to: 0
  2320                           ;app_master.c: 91: if(currIddlePwm4 == 256) currIddlePwm4 = 0;
  2321  00164C  0100               	movlb	0	; () banked
  2322  00164E  0573               	decf	(_currIddlePwm4+1)& (0+255),w,b
  2323  001650  0100               	movlb	0	; () banked
  2324  001652  1172               	iorwf	_currIddlePwm4& (0+255),w,b
  2325  001654  A4D8               	btfss	status,2,c
  2326  001656  0012               	return	
  2327                           
  2328                           ; BSR set to: 0
  2329  001658  0E00               	movlw	0
  2330  00165A  0100               	movlb	0	; () banked
  2331  00165C  6F73               	movwf	(_currIddlePwm4+1)& (0+255),b
  2332  00165E  0E00               	movlw	0
  2333  001660  6F72               	movwf	_currIddlePwm4& (0+255),b
  2334  001662  0012               	return	
  2335  001664                     __end_of_APP_iddle:
  2336                           	opt stack 0
  2337                           tblptru	equ	0xFF8
  2338                           prodh	equ	0xFF4
  2339                           prodl	equ	0xFF3
  2340                           intcon	equ	0xFF2
  2341                           postinc0	equ	0xFEE
  2342                           wreg	equ	0xFE8
  2343                           indf2	equ	0xFDF
  2344                           postinc2	equ	0xFDE
  2345                           postdec2	equ	0xFDD
  2346                           plusw2	equ	0xFDB
  2347                           fsr2h	equ	0xFDA
  2348                           fsr2l	equ	0xFD9
  2349                           status	equ	0xFD8
  2350                           
  2351 ;; *************** function _SPI_R_putsSPI *****************
  2352 ;; Defined at:
  2353 ;;		line 44 in file "../../../../_ELECTRONIC/inc/spi_r.c"
  2354 ;; Parameters:    Size  Location     Type
  2355 ;;  wrptr           2    0[BANK0 ] PTR unsigned char 
  2356 ;;		 -> LeftRight(2), 
  2357 ;; Auto vars:     Size  Location     Type
  2358 ;;		None
  2359 ;; Return value:  Size  Location     Type
  2360 ;;                  1    wreg      void 
  2361 ;; Registers used:
  2362 ;;		wreg, fsr2l, fsr2h, status,2, status,0
  2363 ;; Tracked objects:
  2364 ;;		On entry : 0/0
  2365 ;;		On exit  : 0/0
  2366 ;;		Unchanged: 0/0
  2367 ;; Data sizes:     COMRAM   BANK0   BANK1   BANK2   BANK3   BANK4   BANK5   BANK6   BANK7
  2368 ;;      Params:         0       2       0       0       0       0       0       0       0
  2369 ;;      Locals:         0       0       0       0       0       0       0       0       0
  2370 ;;      Temps:          0       0       0       0       0       0       0       0       0
  2371 ;;      Totals:         0       2       0       0       0       0       0       0       0
  2372 ;;Total ram usage:        2 bytes
  2373 ;; Hardware stack levels used:    1
  2374 ;; Hardware stack levels required when called:   10
  2375 ;; This function calls:
  2376 ;;		Nothing
  2377 ;; This function is called by:
  2378 ;;		_APP_iddle
  2379 ;;		_APP_tick
  2380 ;; This function uses a non-reentrant model
  2381 ;;
  2382                           
  2383                           	psect	text10
  2384  0022FC                     __ptext10:
  2385                           	opt stack 0
  2386  0022FC                     _SPI_R_putsSPI:
  2387                           	opt stack 19
  2388                           
  2389                           ;spi_r.c: 45: while( *wrptr ) {
  2390                           
  2391                           ; BSR set to: 0
  2392                           ;incstack = 0
  2393  0022FC  D00B               	goto	l4099
  2394  0022FE                     l4095:
  2395                           
  2396                           ;spi_r.c: 46: SSPBUF = *wrptr++;
  2397  0022FE  C07C  FFD9         	movff	SPI_R_putsSPI@wrptr,fsr2l
  2398  002302  C07D  FFDA         	movff	SPI_R_putsSPI@wrptr+1,fsr2h
  2399  002306  50DF               	movf	indf2,w,c
  2400  002308  6EC9               	movwf	4041,c	;volatile
  2401  00230A  0100               	movlb	0	; () banked
  2402  00230C  4B7C               	infsnz	SPI_R_putsSPI@wrptr& (0+255),f,b
  2403  00230E  2B7D               	incf	(SPI_R_putsSPI@wrptr+1)& (0+255),f,b
  2404  002310                     l697:
  2405  002310  A0C7               	btfss	4039,0,c	;volatile
  2406  002312  D7FE               	goto	l697
  2407  002314                     l4099:
  2408  002314  C07C  FFD9         	movff	SPI_R_putsSPI@wrptr,fsr2l
  2409  002318  C07D  FFDA         	movff	SPI_R_putsSPI@wrptr+1,fsr2h
  2410  00231C  50DF               	movf	indf2,w,c
  2411  00231E  B4D8               	btfsc	status,2,c
  2412  002320  0012               	return	
  2413  002322  D7ED               	goto	l4095
  2414  002324                     __end_of_SPI_R_putsSPI:
  2415                           	opt stack 0
  2416                           tblptru	equ	0xFF8
  2417                           prodh	equ	0xFF4
  2418                           prodl	equ	0xFF3
  2419                           intcon	equ	0xFF2
  2420                           postinc0	equ	0xFEE
  2421                           wreg	equ	0xFE8
  2422                           indf2	equ	0xFDF
  2423                           postinc2	equ	0xFDE
  2424                           postdec2	equ	0xFDD
  2425                           plusw2	equ	0xFDB
  2426                           fsr2h	equ	0xFDA
  2427                           fsr2l	equ	0xFD9
  2428                           status	equ	0xFD8
  2429                           
  2430 ;; *************** function _PWM_R_setPWM2 *****************
  2431 ;; Defined at:
  2432 ;;		line 11 in file "../../../../_ELECTRONIC/inc/pwm_r.c"
  2433 ;; Parameters:    Size  Location     Type
  2434 ;;  val             2    0[BANK0 ] unsigned int 
  2435 ;; Auto vars:     Size  Location     Type
  2436 ;;		None
  2437 ;; Return value:  Size  Location     Type
  2438 ;;                  1    wreg      void 
  2439 ;; Registers used:
  2440 ;;		wreg, status,2, status,0
  2441 ;; Tracked objects:
  2442 ;;		On entry : 0/0
  2443 ;;		On exit  : 0/0
  2444 ;;		Unchanged: 0/0
  2445 ;; Data sizes:     COMRAM   BANK0   BANK1   BANK2   BANK3   BANK4   BANK5   BANK6   BANK7
  2446 ;;      Params:         0       2       0       0       0       0       0       0       0
  2447 ;;      Locals:         0       0       0       0       0       0       0       0       0
  2448 ;;      Temps:          0       1       0       0       0       0       0       0       0
  2449 ;;      Totals:         0       3       0       0       0       0       0       0       0
  2450 ;;Total ram usage:        3 bytes
  2451 ;; Hardware stack levels used:    1
  2452 ;; Hardware stack levels required when called:   10
  2453 ;; This function calls:
  2454 ;;		Nothing
  2455 ;; This function is called by:
  2456 ;;		_APP_iddle
  2457 ;;		_APP_tick
  2458 ;;		_PWM_R_OpenPWM
  2459 ;; This function uses a non-reentrant model
  2460 ;;
  2461                           
  2462                           	psect	text11
  2463  001FAA                     __ptext11:
  2464                           	opt stack 0
  2465  001FAA                     _PWM_R_setPWM2:
  2466                           	opt stack 18
  2467                           
  2468                           ;pwm_r.c: 12: CCP2CONbits.DC2B0 = (val & 0x01); val >>= 1;
  2469                           
  2470                           ;incstack = 0
  2471  001FAA  C07C  F07E         	movff	PWM_R_setPWM2@val,??_PWM_R_setPWM2
  2472  001FAE  0E01               	movlw	1
  2473  001FB0  0100               	movlb	0	; () banked
  2474  001FB2  177E               	andwf	??_PWM_R_setPWM2& (0+255),f,b
  2475  001FB4  0100               	movlb	0	; () banked
  2476  001FB6  3B7E               	swapf	??_PWM_R_setPWM2& (0+255),f,b
  2477  001FB8  50BA               	movf	4026,w,c	;volatile
  2478  001FBA  0100               	movlb	0	; () banked
  2479  001FBC  197E               	xorwf	??_PWM_R_setPWM2& (0+255),w,b
  2480  001FBE  0BEF               	andlw	-17
  2481  001FC0  197E               	xorwf	??_PWM_R_setPWM2& (0+255),w,b
  2482  001FC2  6EBA               	movwf	4026,c	;volatile
  2483                           
  2484                           ; BSR set to: 0
  2485  001FC4  0100               	movlb	0	; () banked
  2486  001FC6  90D8               	bcf	status,0,c
  2487  001FC8  337D               	rrcf	(PWM_R_setPWM2@val+1)& (0+255),f,b
  2488  001FCA  337C               	rrcf	PWM_R_setPWM2@val& (0+255),f,b
  2489                           
  2490                           ; BSR set to: 0
  2491                           ;pwm_r.c: 13: CCP2CONbits.DC2B1 = (val & 0x01); val >>= 1;
  2492  001FCC  C07C  F07E         	movff	PWM_R_setPWM2@val,??_PWM_R_setPWM2
  2493  001FD0  0E01               	movlw	1
  2494  001FD2  0100               	movlb	0	; () banked
  2495  001FD4  177E               	andwf	??_PWM_R_setPWM2& (0+255),f,b
  2496  001FD6  0100               	movlb	0	; () banked
  2497  001FD8  3B7E               	swapf	??_PWM_R_setPWM2& (0+255),f,b
  2498  001FDA  477E               	rlncf	??_PWM_R_setPWM2& (0+255),f,b
  2499  001FDC  50BA               	movf	4026,w,c	;volatile
  2500  001FDE  0100               	movlb	0	; () banked
  2501  001FE0  197E               	xorwf	??_PWM_R_setPWM2& (0+255),w,b
  2502  001FE2  0BDF               	andlw	-33
  2503  001FE4  197E               	xorwf	??_PWM_R_setPWM2& (0+255),w,b
  2504  001FE6  6EBA               	movwf	4026,c	;volatile
  2505  001FE8  0100               	movlb	0	; () banked
  2506  001FEA  90D8               	bcf	status,0,c
  2507  001FEC  337D               	rrcf	(PWM_R_setPWM2@val+1)& (0+255),f,b
  2508  001FEE  337C               	rrcf	PWM_R_setPWM2@val& (0+255),f,b
  2509                           
  2510                           ; BSR set to: 0
  2511                           ;pwm_r.c: 14: CCPR2L = val;
  2512  001FF0  C07C  FFBB         	movff	PWM_R_setPWM2@val,4027	;volatile
  2513                           
  2514                           ; BSR set to: 0
  2515  001FF4  0012               	return		;funcret
  2516  001FF6                     __end_of_PWM_R_setPWM2:
  2517                           	opt stack 0
  2518                           tblptru	equ	0xFF8
  2519                           prodh	equ	0xFF4
  2520                           prodl	equ	0xFF3
  2521                           intcon	equ	0xFF2
  2522                           postinc0	equ	0xFEE
  2523                           wreg	equ	0xFE8
  2524                           indf2	equ	0xFDF
  2525                           postinc2	equ	0xFDE
  2526                           postdec2	equ	0xFDD
  2527                           plusw2	equ	0xFDB
  2528                           fsr2h	equ	0xFDA
  2529                           fsr2l	equ	0xFD9
  2530                           status	equ	0xFD8
  2531                           
  2532 ;; *************** function _PWM_R_setPWM1 *****************
  2533 ;; Defined at:
  2534 ;;		line 5 in file "../../../../_ELECTRONIC/inc/pwm_r.c"
  2535 ;; Parameters:    Size  Location     Type
  2536 ;;  val             2    0[BANK0 ] unsigned int 
  2537 ;; Auto vars:     Size  Location     Type
  2538 ;;		None
  2539 ;; Return value:  Size  Location     Type
  2540 ;;                  1    wreg      void 
  2541 ;; Registers used:
  2542 ;;		wreg, status,2, status,0
  2543 ;; Tracked objects:
  2544 ;;		On entry : 0/0
  2545 ;;		On exit  : 0/0
  2546 ;;		Unchanged: 0/0
  2547 ;; Data sizes:     COMRAM   BANK0   BANK1   BANK2   BANK3   BANK4   BANK5   BANK6   BANK7
  2548 ;;      Params:         0       2       0       0       0       0       0       0       0
  2549 ;;      Locals:         0       0       0       0       0       0       0       0       0
  2550 ;;      Temps:          0       1       0       0       0       0       0       0       0
  2551 ;;      Totals:         0       3       0       0       0       0       0       0       0
  2552 ;;Total ram usage:        3 bytes
  2553 ;; Hardware stack levels used:    1
  2554 ;; Hardware stack levels required when called:   10
  2555 ;; This function calls:
  2556 ;;		Nothing
  2557 ;; This function is called by:
  2558 ;;		_APP_iddle
  2559 ;;		_APP_tick
  2560 ;;		_PWM_R_OpenPWM
  2561 ;; This function uses a non-reentrant model
  2562 ;;
  2563                           
  2564                           	psect	text12
  2565  001FF6                     __ptext12:
  2566                           	opt stack 0
  2567  001FF6                     _PWM_R_setPWM1:
  2568                           	opt stack 18
  2569                           
  2570                           ;pwm_r.c: 6: CCP1CONbits.DC1B0 = (val & 0x01); val >>= 1;
  2571                           
  2572                           ; BSR set to: 0
  2573                           ;incstack = 0
  2574  001FF6  C07C  F07E         	movff	PWM_R_setPWM1@val,??_PWM_R_setPWM1
  2575  001FFA  0E01               	movlw	1
  2576  001FFC  0100               	movlb	0	; () banked
  2577  001FFE  177E               	andwf	??_PWM_R_setPWM1& (0+255),f,b
  2578  002000  0100               	movlb	0	; () banked
  2579  002002  3B7E               	swapf	??_PWM_R_setPWM1& (0+255),f,b
  2580  002004  50BD               	movf	4029,w,c	;volatile
  2581  002006  0100               	movlb	0	; () banked
  2582  002008  197E               	xorwf	??_PWM_R_setPWM1& (0+255),w,b
  2583  00200A  0BEF               	andlw	-17
  2584  00200C  197E               	xorwf	??_PWM_R_setPWM1& (0+255),w,b
  2585  00200E  6EBD               	movwf	4029,c	;volatile
  2586                           
  2587                           ; BSR set to: 0
  2588  002010  0100               	movlb	0	; () banked
  2589  002012  90D8               	bcf	status,0,c
  2590  002014  337D               	rrcf	(PWM_R_setPWM1@val+1)& (0+255),f,b
  2591  002016  337C               	rrcf	PWM_R_setPWM1@val& (0+255),f,b
  2592                           
  2593                           ; BSR set to: 0
  2594                           ;pwm_r.c: 7: CCP1CONbits.DC1B1 = (val & 0x01); val >>= 1;
  2595  002018  C07C  F07E         	movff	PWM_R_setPWM1@val,??_PWM_R_setPWM1
  2596  00201C  0E01               	movlw	1
  2597  00201E  0100               	movlb	0	; () banked
  2598  002020  177E               	andwf	??_PWM_R_setPWM1& (0+255),f,b
  2599  002022  0100               	movlb	0	; () banked
  2600  002024  3B7E               	swapf	??_PWM_R_setPWM1& (0+255),f,b
  2601  002026  477E               	rlncf	??_PWM_R_setPWM1& (0+255),f,b
  2602  002028  50BD               	movf	4029,w,c	;volatile
  2603  00202A  0100               	movlb	0	; () banked
  2604  00202C  197E               	xorwf	??_PWM_R_setPWM1& (0+255),w,b
  2605  00202E  0BDF               	andlw	-33
  2606  002030  197E               	xorwf	??_PWM_R_setPWM1& (0+255),w,b
  2607  002032  6EBD               	movwf	4029,c	;volatile
  2608  002034  0100               	movlb	0	; () banked
  2609  002036  90D8               	bcf	status,0,c
  2610  002038  337D               	rrcf	(PWM_R_setPWM1@val+1)& (0+255),f,b
  2611  00203A  337C               	rrcf	PWM_R_setPWM1@val& (0+255),f,b
  2612                           
  2613                           ; BSR set to: 0
  2614                           ;pwm_r.c: 8: CCPR1L = val;
  2615  00203C  C07C  FFBE         	movff	PWM_R_setPWM1@val,4030	;volatile
  2616                           
  2617                           ; BSR set to: 0
  2618  002040  0012               	return		;funcret
  2619  002042                     __end_of_PWM_R_setPWM1:
  2620                           	opt stack 0
  2621                           tblptru	equ	0xFF8
  2622                           prodh	equ	0xFF4
  2623                           prodl	equ	0xFF3
  2624                           intcon	equ	0xFF2
  2625                           postinc0	equ	0xFEE
  2626                           wreg	equ	0xFE8
  2627                           indf2	equ	0xFDF
  2628                           postinc2	equ	0xFDE
  2629                           postdec2	equ	0xFDD
  2630                           plusw2	equ	0xFDB
  2631                           fsr2h	equ	0xFDA
  2632                           fsr2l	equ	0xFD9
  2633                           status	equ	0xFD8
  2634                           
  2635 ;; *************** function _SYS_InterruptHigh *****************
  2636 ;; Defined at:
  2637 ;;		line 104 in file "../src/master/system.c"
  2638 ;; Parameters:    Size  Location     Type
  2639 ;;		None
  2640 ;; Auto vars:     Size  Location     Type
  2641 ;;		None
  2642 ;; Return value:  Size  Location     Type
  2643 ;;                  1    wreg      void 
  2644 ;; Registers used:
  2645 ;;		wreg, fsr0l, fsr0h, fsr1l, fsr1h, fsr2l, fsr2h, status,2, status,0, tblptrl, tblptrh, tblptru, prodl, prodh, cstack
  2646 ;; Tracked objects:
  2647 ;;		On entry : 0/0
  2648 ;;		On exit  : 0/0
  2649 ;;		Unchanged: 0/0
  2650 ;; Data sizes:     COMRAM   BANK0   BANK1   BANK2   BANK3   BANK4   BANK5   BANK6   BANK7
  2651 ;;      Params:         0       0       0       0       0       0       0       0       0
  2652 ;;      Locals:         0       0       0       0       0       0       0       0       0
  2653 ;;      Temps:         14       0       0       0       0       0       0       0       0
  2654 ;;      Totals:        14       0       0       0       0       0       0       0       0
  2655 ;;Total ram usage:       14 bytes
  2656 ;; Hardware stack levels used:    1
  2657 ;; Hardware stack levels required when called:    9
  2658 ;; This function calls:
  2659 ;;		_USBDeviceTasks
  2660 ;; This function is called by:
  2661 ;;		Interrupt level 2
  2662 ;; This function uses a non-reentrant model
  2663 ;;
  2664                           
  2665                           	psect	intcode
  2666  000008                     __pintcode:
  2667                           	opt stack 0
  2668  000008                     _SYS_InterruptHigh:
  2669                           	opt stack 18
  2670                           
  2671                           ; BSR set to: 0
  2672                           ;incstack = 0
  2673  000008  8256               	bsf	btemp,1,c	;set compiler interrupt flag (level 2)
  2674  00000A  CFFA F048          	movff	pclath,??_SYS_InterruptHigh
  2675  00000E  CFFB F049          	movff	pclatu,??_SYS_InterruptHigh+1
  2676  000012  EDA7  F00E         	call	int_func,f	;refresh shadow registers
  2677                           pclatu	equ	0xFFB
  2678                           pclath	equ	0xFFA
  2679                           tblptru	equ	0xFF8
  2680                           prodh	equ	0xFF4
  2681                           prodl	equ	0xFF3
  2682                           intcon	equ	0xFF2
  2683                           postinc0	equ	0xFEE
  2684                           wreg	equ	0xFE8
  2685                           indf2	equ	0xFDF
  2686                           postinc2	equ	0xFDE
  2687                           postdec2	equ	0xFDD
  2688                           plusw2	equ	0xFDB
  2689                           fsr2h	equ	0xFDA
  2690                           fsr2l	equ	0xFD9
  2691                           status	equ	0xFD8
  2692                           
  2693                           	psect	intcode_body
  2694  001D4E                     __pintcode_body:
  2695                           	opt stack 18
  2696  001D4E                     int_func:
  2697                           	opt stack 18
  2698  001D4E  0006               	pop		; remove dummy address from shadow register refresh
  2699  001D50  CFE9 F04A          	movff	fsr0l,??_SYS_InterruptHigh+2
  2700  001D54  CFEA F04B          	movff	fsr0h,??_SYS_InterruptHigh+3
  2701  001D58  CFE1 F04C          	movff	fsr1l,??_SYS_InterruptHigh+4
  2702  001D5C  CFE2 F04D          	movff	fsr1h,??_SYS_InterruptHigh+5
  2703  001D60  CFD9 F04E          	movff	fsr2l,??_SYS_InterruptHigh+6
  2704  001D64  CFDA F04F          	movff	fsr2h,??_SYS_InterruptHigh+7
  2705  001D68  CFF3 F050          	movff	prodl,??_SYS_InterruptHigh+8
  2706  001D6C  CFF4 F051          	movff	prodh,??_SYS_InterruptHigh+9
  2707  001D70  CFF6 F052          	movff	tblptrl,??_SYS_InterruptHigh+10
  2708  001D74  CFF7 F053          	movff	tblptrh,??_SYS_InterruptHigh+11
  2709  001D78  CFF8 F054          	movff	tblptru,??_SYS_InterruptHigh+12
  2710  001D7C  CFF5 F055          	movff	tablat,??_SYS_InterruptHigh+13
  2711                           
  2712                           ;system.c: 106: USBDeviceTasks();
  2713  001D80  ECF1  F006         	call	_USBDeviceTasks	;wreg free
  2714  001D84  C055  FFF5         	movff	??_SYS_InterruptHigh+13,tablat
  2715  001D88  C054  FFF8         	movff	??_SYS_InterruptHigh+12,tblptru
  2716  001D8C  C053  FFF7         	movff	??_SYS_InterruptHigh+11,tblptrh
  2717  001D90  C052  FFF6         	movff	??_SYS_InterruptHigh+10,tblptrl
  2718  001D94  C051  FFF4         	movff	??_SYS_InterruptHigh+9,prodh
  2719  001D98  C050  FFF3         	movff	??_SYS_InterruptHigh+8,prodl
  2720  001D9C  C04F  FFDA         	movff	??_SYS_InterruptHigh+7,fsr2h
  2721  001DA0  C04E  FFD9         	movff	??_SYS_InterruptHigh+6,fsr2l
  2722  001DA4  C04D  FFE2         	movff	??_SYS_InterruptHigh+5,fsr1h
  2723  001DA8  C04C  FFE1         	movff	??_SYS_InterruptHigh+4,fsr1l
  2724  001DAC  C04B  FFEA         	movff	??_SYS_InterruptHigh+3,fsr0h
  2725  001DB0  C04A  FFE9         	movff	??_SYS_InterruptHigh+2,fsr0l
  2726  001DB4  C049  FFFB         	movff	??_SYS_InterruptHigh+1,pclatu
  2727  001DB8  C048  FFFA         	movff	??_SYS_InterruptHigh,pclath
  2728  001DBC  9256               	bcf	btemp,1,c	;clear compiler interrupt flag (level 2)
  2729  001DBE  0011               	retfie		f
  2730  001DC0                     __end_of_SYS_InterruptHigh:
  2731                           	opt stack 0
  2732                           pclatu	equ	0xFFB
  2733                           pclath	equ	0xFFA
  2734                           tblptru	equ	0xFF8
  2735                           tblptrh	equ	0xFF7
  2736                           tblptrl	equ	0xFF6
  2737                           tablat	equ	0xFF5
  2738                           prodh	equ	0xFF4
  2739                           prodl	equ	0xFF3
  2740                           intcon	equ	0xFF2
  2741                           postinc0	equ	0xFEE
  2742                           fsr0h	equ	0xFEA
  2743                           fsr0l	equ	0xFE9
  2744                           wreg	equ	0xFE8
  2745                           fsr1h	equ	0xFE2
  2746                           fsr1l	equ	0xFE1
  2747                           indf2	equ	0xFDF
  2748                           postinc2	equ	0xFDE
  2749                           postdec2	equ	0xFDD
  2750                           plusw2	equ	0xFDB
  2751                           fsr2h	equ	0xFDA
  2752                           fsr2l	equ	0xFD9
  2753                           status	equ	0xFD8
  2754                           
  2755 ;; *************** function _USBDeviceTasks *****************
  2756 ;; Defined at:
  2757 ;;		line 495 in file "../src/master/inc/src/usb_device.c"
  2758 ;; Parameters:    Size  Location     Type
  2759 ;;		None
  2760 ;; Auto vars:     Size  Location     Type
  2761 ;;  i               1   27[COMRAM] unsigned char 
  2762 ;; Return value:  Size  Location     Type
  2763 ;;                  1    wreg      void 
  2764 ;; Registers used:
  2765 ;;		wreg, fsr0l, fsr0h, fsr1l, fsr1h, fsr2l, fsr2h, status,2, status,0, tblptrl, tblptrh, tblptru, prodl, prodh, cstack
  2766 ;; Tracked objects:
  2767 ;;		On entry : 0/0
  2768 ;;		On exit  : 0/0
  2769 ;;		Unchanged: 0/0
  2770 ;; Data sizes:     COMRAM   BANK0   BANK1   BANK2   BANK3   BANK4   BANK5   BANK6   BANK7
  2771 ;;      Params:         0       0       0       0       0       0       0       0       0
  2772 ;;      Locals:         1       0       0       0       0       0       0       0       0
  2773 ;;      Temps:          0       0       0       0       0       0       0       0       0
  2774 ;;      Totals:         1       0       0       0       0       0       0       0       0
  2775 ;;Total ram usage:        1 bytes
  2776 ;; Hardware stack levels used:    1
  2777 ;; Hardware stack levels required when called:    8
  2778 ;; This function calls:
  2779 ;;		_USBCtrlEPAllowStatusStage
  2780 ;;		_USBCtrlEPService
  2781 ;;		_USBIncrement1msInternalTimers
  2782 ;;		_USBStallHandler
  2783 ;;		_USBSuspend
  2784 ;;		_USBWakeFromSuspend
  2785 ;;		_USER_USB_CALLBACK_EVENT_HANDLER
  2786 ;;		i2_USBDeviceInit
  2787 ;; This function is called by:
  2788 ;;		_SYS_InterruptHigh
  2789 ;; This function uses a non-reentrant model
  2790 ;;
  2791                           
  2792                           	psect	text14
  2793  000DE2                     __ptext14:
  2794                           	opt stack 0
  2795  000DE2                     _USBDeviceTasks:
  2796                           	opt stack 18
  2797                           
  2798                           ;usb_device.c: 497: uint8_t i;
  2799                           ;usb_device.c: 608: if(USBDeviceState == ATTACHED_STATE)
  2800                           
  2801                           ;incstack = 0
  2802  000DE2  0421               	decf	_USBDeviceState,w,c	;volatile
  2803  000DE4  B4D8               	btfsc	status,2,c
  2804                           
  2805                           ;usb_device.c: 609: {
  2806                           ;usb_device.c: 619: if(!UCONbits.SE0)
  2807  000DE6  BA6D               	btfsc	3949,5,c	;volatile
  2808  000DE8  D006               	goto	i2l3849
  2809                           
  2810                           ;usb_device.c: 620: {
  2811                           ;usb_device.c: 626: {UIR = 0;};
  2812  000DEA  0E00               	movlw	0
  2813  000DEC  6E68               	movwf	3944,c	;volatile
  2814                           
  2815                           ;usb_device.c: 632: UIEbits.URSTIE = 1;
  2816  000DEE  8069               	bsf	3945,0,c	;volatile
  2817                           
  2818                           ;usb_device.c: 633: UIEbits.IDLEIE = 1;
  2819  000DF0  8869               	bsf	3945,4,c	;volatile
  2820                           
  2821                           ;usb_device.c: 634: USBDeviceState = POWERED_STATE;
  2822  000DF2  0E02               	movlw	2
  2823  000DF4  6E21               	movwf	_USBDeviceState,c	;volatile
  2824  000DF6                     i2l3849:
  2825                           
  2826                           ;usb_device.c: 635: }
  2827                           ;usb_device.c: 636: }
  2828                           ;usb_device.c: 652: if(UIRbits.ACTVIF && UIEbits.ACTVIE)
  2829  000DF6  B468               	btfsc	3944,2,c	;volatile
  2830  000DF8  A469               	btfss	3945,2,c	;volatile
  2831  000DFA  D003               	goto	i2l3857
  2832                           
  2833                           ;usb_device.c: 653: {
  2834                           ;usb_device.c: 654: (UIR &= 0xFB);
  2835  000DFC  9468               	bcf	3944,2,c	;volatile
  2836                           
  2837                           ;usb_device.c: 658: USBWakeFromSuspend();
  2838  000DFE  EC0A  F011         	call	_USBWakeFromSuspend	;wreg free
  2839  000E02                     i2l3857:
  2840                           
  2841                           ;usb_device.c: 660: }
  2842                           ;usb_device.c: 665: if(UCONbits.SUSPND==1)
  2843  000E02  A26D               	btfss	3949,1,c	;volatile
  2844  000E04  D002               	goto	i2l255
  2845                           
  2846                           ;usb_device.c: 666: {
  2847                           ;usb_device.c: 667: {PIR2bits.USBIF = 0;};
  2848  000E06  9AA1               	bcf	4001,5,c	;volatile
  2849                           
  2850                           ;usb_device.c: 668: return;
  2851  000E08  0012               	return	
  2852  000E0A                     i2l255:
  2853                           
  2854                           ;usb_device.c: 669: }
  2855                           ;usb_device.c: 681: if(UIRbits.URSTIF && UIEbits.URSTIE)
  2856  000E0A  B068               	btfsc	3944,0,c	;volatile
  2857  000E0C  A069               	btfss	3945,0,c	;volatile
  2858  000E0E  D006               	goto	i2l3871
  2859                           
  2860                           ;usb_device.c: 682: {
  2861                           ;usb_device.c: 683: USBDeviceInit();
  2862  000E10  EC51  F006         	call	i2_USBDeviceInit	;wreg free
  2863                           
  2864                           ;usb_device.c: 687: {PIE2bits.USBIE = 1;};
  2865  000E14  8AA0               	bsf	4000,5,c	;volatile
  2866                           
  2867                           ;usb_device.c: 689: USBDeviceState = DEFAULT_STATE;
  2868  000E16  0E04               	movlw	4
  2869  000E18  6E21               	movwf	_USBDeviceState,c	;volatile
  2870                           
  2871                           ;usb_device.c: 699: (UIR &= 0xFE);
  2872  000E1A  9068               	bcf	3944,0,c	;volatile
  2873  000E1C                     i2l3871:
  2874                           
  2875                           ;usb_device.c: 700: }
  2876                           ;usb_device.c: 705: if(UIRbits.IDLEIF && UIEbits.IDLEIE)
  2877  000E1C  B868               	btfsc	3944,4,c	;volatile
  2878  000E1E  A869               	btfss	3945,4,c	;volatile
  2879  000E20  D002               	goto	i2l3877
  2880                           
  2881                           ;usb_device.c: 706: {
  2882                           ;usb_device.c: 712: USBSuspend();
  2883  000E22  EC52  F011         	call	_USBSuspend	;wreg free
  2884  000E26                     i2l3877:
  2885                           
  2886                           ;usb_device.c: 714: }
  2887                           ;usb_device.c: 726: if(UIRbits.SOFIF)
  2888  000E26  AC68               	btfss	3944,6,c	;volatile
  2889  000E28  D01A               	goto	i2l3895
  2890                           
  2891                           ;usb_device.c: 727: {
  2892                           ;usb_device.c: 729: if(UIEbits.SOFIE)
  2893  000E2A  AC69               	btfss	3945,6,c	;volatile
  2894  000E2C  D00E               	goto	i2l3883
  2895                           
  2896                           ;usb_device.c: 730: {
  2897                           ;usb_device.c: 731: USER_USB_CALLBACK_EVENT_HANDLER(EVENT_SOF,0,1);
  2898  000E2E  0E00               	movlw	0
  2899  000E30  6E39               	movwf	USER_USB_CALLBACK_EVENT_HANDLER@event+1,c
  2900  000E32  0E73               	movlw	115
  2901  000E34  6E38               	movwf	USER_USB_CALLBACK_EVENT_HANDLER@event,c
  2902  000E36  0E00               	movlw	0
  2903  000E38  6E3A               	movwf	USER_USB_CALLBACK_EVENT_HANDLER@pdata,c
  2904  000E3A  0E00               	movlw	0
  2905  000E3C  6E3B               	movwf	USER_USB_CALLBACK_EVENT_HANDLER@pdata+1,c
  2906  000E3E  0E00               	movlw	0
  2907  000E40  6E3D               	movwf	USER_USB_CALLBACK_EVENT_HANDLER@size+1,c
  2908  000E42  0E01               	movlw	1
  2909  000E44  6E3C               	movwf	USER_USB_CALLBACK_EVENT_HANDLER@size,c
  2910  000E46  ECE0  F00E         	call	_USER_USB_CALLBACK_EVENT_HANDLER	;wreg free
  2911  000E4A                     i2l3883:
  2912                           
  2913                           ;usb_device.c: 732: }
  2914                           ;usb_device.c: 733: (UIR &= 0xBF);
  2915  000E4A  9C68               	bcf	3944,6,c	;volatile
  2916                           
  2917                           ;usb_device.c: 736: USBIncrement1msInternalTimers();
  2918  000E4C  ECB7  F011         	call	_USBIncrement1msInternalTimers	;wreg free
  2919                           
  2920                           ;usb_device.c: 753: if(USBStatusStageTimeoutCounter != 0u)
  2921  000E50  5024               	movf	_USBStatusStageTimeoutCounter,w,c	;volatile
  2922  000E52  A4D8               	btfss	status,2,c
  2923                           
  2924                           ;usb_device.c: 754: {
  2925                           ;usb_device.c: 755: USBStatusStageTimeoutCounter--;
  2926  000E54  0624               	decf	_USBStatusStageTimeoutCounter,f,c	;volatile
  2927                           
  2928                           ;usb_device.c: 756: }
  2929                           ;usb_device.c: 762: if(USBStatusStageTimeoutCounter == 0)
  2930  000E56  5024               	movf	_USBStatusStageTimeoutCounter,w,c	;volatile
  2931  000E58  B4D8               	btfsc	status,2,c
  2932                           
  2933                           ;usb_device.c: 763: {
  2934                           ;usb_device.c: 764: USBCtrlEPAllowStatusStage();
  2935  000E5A  EC99  F00B         	call	_USBCtrlEPAllowStatusStage	;wreg free
  2936  000E5E                     i2l3895:
  2937                           
  2938                           ;usb_device.c: 765: }
  2939                           ;usb_device.c: 767: }
  2940                           ;usb_device.c: 769: if(UIRbits.STALLIF && UIEbits.STALLIE)
  2941  000E5E  BA68               	btfsc	3944,5,c	;volatile
  2942  000E60  AA69               	btfss	3945,5,c	;volatile
  2943  000E62  D002               	goto	i2l3901
  2944                           
  2945                           ;usb_device.c: 770: {
  2946                           ;usb_device.c: 771: USBStallHandler();
  2947  000E64  EC21  F010         	call	_USBStallHandler	;wreg free
  2948  000E68                     i2l3901:
  2949                           
  2950                           ;usb_device.c: 772: }
  2951                           ;usb_device.c: 774: if(UIRbits.UERRIF && UIEbits.UERRIE)
  2952  000E68  B268               	btfsc	3944,1,c	;volatile
  2953  000E6A  A269               	btfss	3945,1,c	;volatile
  2954  000E6C  D00F               	goto	i2l3909
  2955                           
  2956                           ;usb_device.c: 775: {
  2957                           ;usb_device.c: 776: USER_USB_CALLBACK_EVENT_HANDLER(EVENT_BUS_ERROR,0,1);
  2958  000E6E  0E7F               	movlw	127
  2959  000E70  6E39               	movwf	USER_USB_CALLBACK_EVENT_HANDLER@event+1,c
  2960  000E72  6838               	setf	USER_USB_CALLBACK_EVENT_HANDLER@event,c
  2961  000E74  0E00               	movlw	0
  2962  000E76  6E3A               	movwf	USER_USB_CALLBACK_EVENT_HANDLER@pdata,c
  2963  000E78  0E00               	movlw	0
  2964  000E7A  6E3B               	movwf	USER_USB_CALLBACK_EVENT_HANDLER@pdata+1,c
  2965  000E7C  0E00               	movlw	0
  2966  000E7E  6E3D               	movwf	USER_USB_CALLBACK_EVENT_HANDLER@size+1,c
  2967  000E80  0E01               	movlw	1
  2968  000E82  6E3C               	movwf	USER_USB_CALLBACK_EVENT_HANDLER@size,c
  2969  000E84  ECE0  F00E         	call	_USER_USB_CALLBACK_EVENT_HANDLER	;wreg free
  2970                           
  2971                           ;usb_device.c: 777: {UEIR = 0;};
  2972  000E88  0E00               	movlw	0
  2973  000E8A  6E6A               	movwf	3946,c	;volatile
  2974  000E8C                     i2l3909:
  2975                           
  2976                           ;usb_device.c: 785: }
  2977                           ;usb_device.c: 792: if(USBDeviceState < DEFAULT_STATE)
  2978  000E8C  0E04               	movlw	4
  2979  000E8E  6021               	cpfslt	_USBDeviceState,c	;volatile
  2980  000E90  D002               	goto	i2l265
  2981                           
  2982                           ;usb_device.c: 793: {
  2983                           ;usb_device.c: 794: {PIR2bits.USBIF = 0;};
  2984  000E92  9AA1               	bcf	4001,5,c	;volatile
  2985                           
  2986                           ;usb_device.c: 795: return;
  2987  000E94  0012               	return	
  2988  000E96                     i2l265:
  2989                           
  2990                           ;usb_device.c: 796: }
  2991                           ;usb_device.c: 801: if(UIEbits.TRNIE)
  2992  000E96  A669               	btfss	3945,3,c	;volatile
  2993  000E98  D038               	goto	i2l266
  2994                           
  2995                           ;usb_device.c: 802: {
  2996                           ;usb_device.c: 803: for(i = 0; i < 4u; i++)
  2997  000E9A  0E00               	movlw	0
  2998  000E9C  6E47               	movwf	USBDeviceTasks@i,c
  2999  000E9E                     i2l3915:
  3000  000E9E  0E03               	movlw	3
  3001  000EA0  6447               	cpfsgt	USBDeviceTasks@i,c
  3002  000EA2  D001               	goto	i2l267
  3003  000EA4  D032               	goto	i2l266
  3004  000EA6                     i2l267:
  3005                           
  3006                           ;usb_device.c: 804: {
  3007                           ;usb_device.c: 805: if(UIRbits.TRNIF)
  3008  000EA6  A668               	btfss	3944,3,c	;volatile
  3009  000EA8  D030               	goto	i2l266
  3010                           
  3011                           ;usb_device.c: 806: {
  3012                           ;usb_device.c: 808: USTATcopy.Val = USTAT;
  3013  000EAA  CF6C F02B          	movff	3948,_USTATcopy	;volatile
  3014                           
  3015                           ;usb_device.c: 809: endpoint_number = USTATcopy.endpoint_number;
  3016  000EAE  302B               	rrcf	_USTATcopy,w,c	;volatile
  3017  000EB0  32E8               	rrcf	wreg,f,c
  3018  000EB2  32E8               	rrcf	wreg,f,c
  3019  000EB4  0B0F               	andlw	15
  3020  000EB6  6E27               	movwf	_endpoint_number,c	;volatile
  3021                           
  3022                           ;usb_device.c: 811: (UIR &= 0xF7);
  3023  000EB8  9668               	bcf	3944,3,c	;volatile
  3024                           
  3025                           ;usb_device.c: 816: if(USTATcopy.direction == 0)
  3026  000EBA  B42B               	btfsc	_USTATcopy,2,c	;volatile
  3027  000EBC  D007               	goto	i2l3929
  3028                           
  3029                           ;usb_device.c: 817: {
  3030                           ;usb_device.c: 818: ep_data_out[endpoint_number].bits.ping_pong_state ^= 1;
  3031  000EBE  5027               	movf	_endpoint_number,w,c	;volatile
  3032  000EC0  0D01               	mullw	1
  3033  000EC2  0E15               	movlw	low _ep_data_out
  3034  000EC4  24F3               	addwf	prodl,w,c
  3035  000EC6  6ED9               	movwf	fsr2l,c
  3036  000EC8  0E00               	movlw	high _ep_data_out
  3037  000ECA  D006               	goto	L3
  3038  000ECC                     i2l3929:
  3039                           
  3040                           ;usb_device.c: 820: else
  3041                           ;usb_device.c: 821: {
  3042                           ;usb_device.c: 822: ep_data_in[endpoint_number].bits.ping_pong_state ^= 1;
  3043  000ECC  5027               	movf	_endpoint_number,w,c	;volatile
  3044  000ECE  0D01               	mullw	1
  3045  000ED0  0E13               	movlw	low _ep_data_in
  3046  000ED2  24F3               	addwf	prodl,w,c
  3047  000ED4  6ED9               	movwf	fsr2l,c
  3048  000ED6  0E00               	movlw	high _ep_data_in
  3049  000ED8                     L3:
  3050  000ED8  20F4               	addwfc	prodh,w,c
  3051  000EDA  6EDA               	movwf	fsr2h,c
  3052  000EDC  70DF               	btg	indf2,0,c
  3053                           
  3054                           ;usb_device.c: 823: }
  3055                           ;usb_device.c: 828: if(endpoint_number == 0)
  3056  000EDE  5027               	movf	_endpoint_number,w,c	;volatile
  3057  000EE0  A4D8               	btfss	status,2,c
  3058  000EE2  D003               	goto	i2l3935
  3059                           
  3060                           ;usb_device.c: 829: {
  3061                           ;usb_device.c: 830: USBCtrlEPService();
  3062  000EE4  EC9D  F00D         	call	_USBCtrlEPService	;wreg free
  3063                           
  3064                           ;usb_device.c: 831: }
  3065  000EE8  D00E               	goto	i2l3937
  3066  000EEA                     i2l3935:
  3067                           
  3068                           ;usb_device.c: 832: else
  3069                           ;usb_device.c: 833: {
  3070                           ;usb_device.c: 834: USER_USB_CALLBACK_EVENT_HANDLER(EVENT_TRANSFER,(uint8_t*)&USTATcopy.
      +                          Val,0);
  3071  000EEA  0E00               	movlw	0
  3072  000EEC  6E39               	movwf	USER_USB_CALLBACK_EVENT_HANDLER@event+1,c
  3073  000EEE  0E72               	movlw	114
  3074  000EF0  6E38               	movwf	USER_USB_CALLBACK_EVENT_HANDLER@event,c
  3075  000EF2  0E2B               	movlw	low _USTATcopy
  3076  000EF4  6E3A               	movwf	USER_USB_CALLBACK_EVENT_HANDLER@pdata,c
  3077  000EF6  0E00               	movlw	high _USTATcopy
  3078  000EF8  6E3B               	movwf	USER_USB_CALLBACK_EVENT_HANDLER@pdata+1,c
  3079  000EFA  0E00               	movlw	0
  3080  000EFC  6E3D               	movwf	USER_USB_CALLBACK_EVENT_HANDLER@size+1,c
  3081  000EFE  0E00               	movlw	0
  3082  000F00  6E3C               	movwf	USER_USB_CALLBACK_EVENT_HANDLER@size,c
  3083  000F02  ECE0  F00E         	call	_USER_USB_CALLBACK_EVENT_HANDLER	;wreg free
  3084  000F06                     i2l3937:
  3085  000F06  2A47               	incf	USBDeviceTasks@i,f,c
  3086  000F08  D7CA               	goto	i2l3915
  3087  000F0A                     i2l266:
  3088                           
  3089                           ;usb_device.c: 840: }
  3090                           ;usb_device.c: 841: }
  3091                           ;usb_device.c: 842: }
  3092                           ;usb_device.c: 844: {PIR2bits.USBIF = 0;};
  3093  000F0A  9AA1               	bcf	4001,5,c	;volatile
  3094  000F0C  0012               	return		;funcret
  3095  000F0E                     __end_of_USBDeviceTasks:
  3096                           	opt stack 0
  3097                           pclatu	equ	0xFFB
  3098                           pclath	equ	0xFFA
  3099                           tblptru	equ	0xFF8
  3100                           tblptrh	equ	0xFF7
  3101                           tblptrl	equ	0xFF6
  3102                           tablat	equ	0xFF5
  3103                           prodh	equ	0xFF4
  3104                           prodl	equ	0xFF3
  3105                           intcon	equ	0xFF2
  3106                           postinc0	equ	0xFEE
  3107                           fsr0h	equ	0xFEA
  3108                           fsr0l	equ	0xFE9
  3109                           wreg	equ	0xFE8
  3110                           fsr1h	equ	0xFE2
  3111                           fsr1l	equ	0xFE1
  3112                           indf2	equ	0xFDF
  3113                           postinc2	equ	0xFDE
  3114                           postdec2	equ	0xFDD
  3115                           plusw2	equ	0xFDB
  3116                           fsr2h	equ	0xFDA
  3117                           fsr2l	equ	0xFD9
  3118                           status	equ	0xFD8
  3119                           
  3120 ;; *************** function i2_USBDeviceInit *****************
  3121 ;; Defined at:
  3122 ;;		line 295 in file "../src/master/inc/src/usb_device.c"
  3123 ;; Parameters:    Size  Location     Type
  3124 ;;		None
  3125 ;; Auto vars:     Size  Location     Type
  3126 ;;  USBDeviceIni    1    8[COMRAM] unsigned char 
  3127 ;; Return value:  Size  Location     Type
  3128 ;;                  1    wreg      void 
  3129 ;; Registers used:
  3130 ;;		wreg, fsr2l, fsr2h, status,2, status,0, prodl, prodh, cstack
  3131 ;; Tracked objects:
  3132 ;;		On entry : 0/0
  3133 ;;		On exit  : 0/0
  3134 ;;		Unchanged: 0/0
  3135 ;; Data sizes:     COMRAM   BANK0   BANK1   BANK2   BANK3   BANK4   BANK5   BANK6   BANK7
  3136 ;;      Params:         0       0       0       0       0       0       0       0       0
  3137 ;;      Locals:         1       0       0       0       0       0       0       0       0
  3138 ;;      Temps:          0       0       0       0       0       0       0       0       0
  3139 ;;      Totals:         1       0       0       0       0       0       0       0       0
  3140 ;;Total ram usage:        1 bytes
  3141 ;; Hardware stack levels used:    1
  3142 ;; Hardware stack levels required when called:    1
  3143 ;; This function calls:
  3144 ;;		i2_memset
  3145 ;; This function is called by:
  3146 ;;		_USBDeviceTasks
  3147 ;; This function uses a non-reentrant model
  3148 ;;
  3149                           
  3150                           	psect	text15
  3151  000CA2                     __ptext15:
  3152                           	opt stack 0
  3153  000CA2                     i2_USBDeviceInit:
  3154                           	opt stack 24
  3155                           
  3156                           ;usb_device.c: 297: uint8_t i;
  3157                           ;usb_device.c: 299: {PIE2bits.USBIE = 0;};
  3158                           
  3159                           ;incstack = 0
  3160  000CA2  9AA0               	bcf	4000,5,c	;volatile
  3161                           
  3162                           ;usb_device.c: 303: ;
  3163                           ;usb_device.c: 306: {UEIR = 0;};
  3164  000CA4  0E00               	movlw	0
  3165  000CA6  6E6A               	movwf	3946,c	;volatile
  3166                           
  3167                           ;usb_device.c: 309: {UIR = 0;};
  3168  000CA8  0E00               	movlw	0
  3169  000CAA  6E68               	movwf	3944,c	;volatile
  3170                           
  3171                           ;usb_device.c: 312: UEP0 = 0;
  3172  000CAC  0E00               	movlw	0
  3173  000CAE  6E70               	movwf	3952,c	;volatile
  3174                           
  3175                           ;usb_device.c: 314: memset((void*)&UEP1,0x00,(1));;
  3176  000CB0  0E71               	movlw	113
  3177  000CB2  6E2C               	movwf	i2memset@p1,c
  3178  000CB4  0E0F               	movlw	15
  3179  000CB6  6E2D               	movwf	i2memset@p1+1,c
  3180  000CB8  0E00               	movlw	0
  3181  000CBA  6E2F               	movwf	i2memset@c+1,c
  3182  000CBC  0E00               	movlw	0
  3183  000CBE  6E2E               	movwf	i2memset@c,c
  3184  000CC0  0E00               	movlw	0
  3185  000CC2  6E31               	movwf	i2memset@n+1,c
  3186  000CC4  0E01               	movlw	1
  3187  000CC6  6E30               	movwf	i2memset@n,c
  3188  000CC8  EC68  F011         	call	i2_memset	;wreg free
  3189                           
  3190                           ;usb_device.c: 316: { UCFG = 0x10 | 0x00 | 0x04 | 0x02; UEIE = 0x9F; UIE = 0x39 | 0x40 |
      +                           0x02; };
  3191  000CCC  0E16               	movlw	22
  3192  000CCE  6E6F               	movwf	3951,c	;volatile
  3193  000CD0  0E9F               	movlw	159
  3194  000CD2  6E6B               	movwf	3947,c	;volatile
  3195  000CD4  0E7B               	movlw	123
  3196  000CD6  6E69               	movwf	3945,c	;volatile
  3197                           
  3198                           ;usb_device.c: 319: ;
  3199                           ;usb_device.c: 322: ;
  3200                           ;usb_device.c: 325: for(i = 0; i < (sizeof(BDT)/sizeof(BDT_ENTRY)); i++)
  3201  000CD8  0E00               	movlw	0
  3202  000CDA  6E34               	movwf	i2USBDeviceInit@i,c
  3203  000CDC                     i2l3615:
  3204  000CDC  0E07               	movlw	7
  3205  000CDE  6434               	cpfsgt	i2USBDeviceInit@i,c
  3206  000CE0  D001               	goto	i2l3619
  3207  000CE2  D00E               	goto	i2l244
  3208  000CE4                     i2l3619:
  3209                           
  3210                           ;usb_device.c: 326: {
  3211                           ;usb_device.c: 327: BDT[i].Val = 0x00;
  3212  000CE4  5034               	movf	i2USBDeviceInit@i,w,c
  3213  000CE6  0D04               	mullw	4
  3214  000CE8  0E00               	movlw	0
  3215  000CEA  24F3               	addwf	prodl,w,c
  3216  000CEC  6ED9               	movwf	fsr2l,c
  3217  000CEE  0E04               	movlw	4
  3218  000CF0  20F4               	addwfc	prodh,w,c
  3219  000CF2  6EDA               	movwf	fsr2h,c
  3220  000CF4  6ADE               	clrf	postinc2,c
  3221  000CF6  6ADE               	clrf	postinc2,c
  3222  000CF8  6ADE               	clrf	postinc2,c
  3223  000CFA  6ADD               	clrf	postdec2,c
  3224  000CFC  2A34               	incf	i2USBDeviceInit@i,f,c
  3225  000CFE  D7EE               	goto	i2l3615
  3226  000D00                     i2l244:
  3227                           
  3228                           ;usb_device.c: 328: }
  3229                           ;usb_device.c: 331: UCONbits.PPBRST = 1;
  3230  000D00  8C6D               	bsf	3949,6,c	;volatile
  3231                           
  3232                           ;usb_device.c: 334: UADDR = 0x00;
  3233  000D02  0E00               	movlw	0
  3234  000D04  6E6E               	movwf	3950,c	;volatile
  3235                           
  3236                           ;usb_device.c: 337: UCONbits.PKTDIS = 0;
  3237  000D06  986D               	bcf	3949,4,c	;volatile
  3238                           
  3239                           ;usb_device.c: 340: UCONbits.PPBRST = 0;
  3240  000D08  9C6D               	bcf	3949,6,c	;volatile
  3241  000D0A                     i2l3631:
  3242                           
  3243                           ;usb_device.c: 344: {
  3244                           ;usb_device.c: 345: (UIR &= 0xF7);
  3245  000D0A  9668               	bcf	3944,3,c	;volatile
  3246                           
  3247                           ;usb_device.c: 347: inPipes[0].info.Val = 0;
  3248  000D0C  0E00               	movlw	0
  3249  000D0E  6E0C               	movwf	_inPipes+3,c	;volatile
  3250                           
  3251                           ;usb_device.c: 348: outPipes[0].info.Val = 0;
  3252  000D10  0E00               	movlw	0
  3253  000D12  6E04               	movwf	_outPipes+3,c	;volatile
  3254                           
  3255                           ;usb_device.c: 349: outPipes[0].wCount.Val = 0;
  3256  000D14  0E00               	movlw	0
  3257  000D16  6E06               	movwf	_outPipes+5,c	;volatile
  3258  000D18  0E00               	movlw	0
  3259  000D1A  6E05               	movwf	_outPipes+4,c	;volatile
  3260                           
  3261                           ;usb_device.c: 350: }while(UIRbits.TRNIF == 1);
  3262  000D1C  B668               	btfsc	3944,3,c	;volatile
  3263  000D1E  D7F5               	goto	i2l3631
  3264                           
  3265                           ;usb_device.c: 354: USBStatusStageEnabledFlag1 = 1;
  3266  000D20  0E01               	movlw	1
  3267  000D22  6E22               	movwf	_USBStatusStageEnabledFlag1,c	;volatile
  3268                           
  3269                           ;usb_device.c: 355: USBStatusStageEnabledFlag2 = 1;
  3270  000D24  0E01               	movlw	1
  3271  000D26  6E23               	movwf	_USBStatusStageEnabledFlag2,c	;volatile
  3272                           
  3273                           ;usb_device.c: 357: USBDeferINDataStagePackets = 0;
  3274  000D28  0E00               	movlw	0
  3275  000D2A  6E1E               	movwf	_USBDeferINDataStagePackets,c	;volatile
  3276                           
  3277                           ;usb_device.c: 358: USBDeferOUTDataStagePackets = 0;
  3278  000D2C  0E00               	movlw	0
  3279  000D2E  6E1F               	movwf	_USBDeferOUTDataStagePackets,c	;volatile
  3280                           
  3281                           ;usb_device.c: 359: USBBusIsSuspended = 0;
  3282  000D30  0E00               	movlw	0
  3283  000D32  6E1D               	movwf	_USBBusIsSuspended,c	;volatile
  3284                           
  3285                           ;usb_device.c: 363: for(i = 0; i < (uint8_t)(1+1u); i++)
  3286  000D34  0E00               	movlw	0
  3287  000D36  6E34               	movwf	i2USBDeviceInit@i,c
  3288  000D38                     i2l3643:
  3289  000D38  0E01               	movlw	1
  3290  000D3A  6434               	cpfsgt	i2USBDeviceInit@i,c
  3291  000D3C  D001               	goto	i2l3647
  3292  000D3E  D02E               	goto	i2l3653
  3293  000D40                     i2l3647:
  3294                           
  3295                           ;usb_device.c: 364: {
  3296                           ;usb_device.c: 365: pBDTEntryIn[i] = 0u;
  3297  000D40  5034               	movf	i2USBDeviceInit@i,w,c
  3298  000D42  0D02               	mullw	2
  3299  000D44  0E0F               	movlw	low _pBDTEntryIn
  3300  000D46  24F3               	addwf	prodl,w,c
  3301  000D48  6ED9               	movwf	fsr2l,c
  3302  000D4A  0E00               	movlw	high _pBDTEntryIn
  3303  000D4C  20F4               	addwfc	prodh,w,c
  3304  000D4E  6EDA               	movwf	fsr2h,c
  3305  000D50  0E00               	movlw	0
  3306  000D52  6EDE               	movwf	postinc2,c
  3307  000D54  0E00               	movlw	0
  3308  000D56  6EDD               	movwf	postdec2,c
  3309                           
  3310                           ;usb_device.c: 366: pBDTEntryOut[i] = 0u;
  3311  000D58  5034               	movf	i2USBDeviceInit@i,w,c
  3312  000D5A  0D02               	mullw	2
  3313  000D5C  0E64               	movlw	low _pBDTEntryOut
  3314  000D5E  24F3               	addwf	prodl,w,c
  3315  000D60  6ED9               	movwf	fsr2l,c
  3316  000D62  0E00               	movlw	high _pBDTEntryOut
  3317  000D64  20F4               	addwfc	prodh,w,c
  3318  000D66  6EDA               	movwf	fsr2h,c
  3319  000D68  0E00               	movlw	0
  3320  000D6A  6EDE               	movwf	postinc2,c
  3321  000D6C  0E00               	movlw	0
  3322  000D6E  6EDD               	movwf	postdec2,c
  3323                           
  3324                           ;usb_device.c: 367: ep_data_in[i].Val = 0u;
  3325  000D70  5034               	movf	i2USBDeviceInit@i,w,c
  3326  000D72  0D01               	mullw	1
  3327  000D74  0E13               	movlw	low _ep_data_in
  3328  000D76  24F3               	addwf	prodl,w,c
  3329  000D78  6ED9               	movwf	fsr2l,c
  3330  000D7A  0E00               	movlw	high _ep_data_in
  3331  000D7C  20F4               	addwfc	prodh,w,c
  3332  000D7E  6EDA               	movwf	fsr2h,c
  3333  000D80  0E00               	movlw	0
  3334  000D82  6EDF               	movwf	indf2,c
  3335                           
  3336                           ;usb_device.c: 368: ep_data_out[i].Val = 0u;
  3337  000D84  5034               	movf	i2USBDeviceInit@i,w,c
  3338  000D86  0D01               	mullw	1
  3339  000D88  0E15               	movlw	low _ep_data_out
  3340  000D8A  24F3               	addwf	prodl,w,c
  3341  000D8C  6ED9               	movwf	fsr2l,c
  3342  000D8E  0E00               	movlw	high _ep_data_out
  3343  000D90  20F4               	addwfc	prodh,w,c
  3344  000D92  6EDA               	movwf	fsr2h,c
  3345  000D94  0E00               	movlw	0
  3346  000D96  6EDF               	movwf	indf2,c
  3347  000D98  2A34               	incf	i2USBDeviceInit@i,f,c
  3348  000D9A  D7CE               	goto	i2l3643
  3349  000D9C                     i2l3653:
  3350                           
  3351                           ;usb_device.c: 369: }
  3352                           ;usb_device.c: 372: pBDTEntryIn[0] = (volatile BDT_ENTRY*)&BDT[2];
  3353  000D9C  0E08               	movlw	8
  3354  000D9E  6E0F               	movwf	_pBDTEntryIn,c
  3355  000DA0  0E04               	movlw	4
  3356  000DA2  6E10               	movwf	_pBDTEntryIn+1,c
  3357                           
  3358                           ;usb_device.c: 374: UEP0 = 0x06|0x10;
  3359  000DA4  0E16               	movlw	22
  3360  000DA6  6E70               	movwf	3952,c	;volatile
  3361                           
  3362                           ;usb_device.c: 376: BDT[0].ADR = ((uint16_t)(&SetupPkt));
  3363  000DA8  0E04               	movlw	4
  3364  000DAA  0104               	movlb	4	; () banked
  3365  000DAC  6F03               	movwf	3,b	;volatile
  3366  000DAE  0E20               	movlw	32
  3367  000DB0  6F02               	movwf	2,b	;volatile
  3368                           
  3369                           ; BSR set to: 4
  3370                           ;usb_device.c: 377: BDT[0].CNT = 8;
  3371  000DB2  0E08               	movlw	8
  3372  000DB4  0104               	movlb	4	; () banked
  3373  000DB6  6F01               	movwf	1,b	;volatile
  3374                           
  3375                           ; BSR set to: 4
  3376                           ;usb_device.c: 378: BDT[0].STAT.Val = 0x00|0x04;
  3377  000DB8  0E04               	movlw	4
  3378  000DBA  0104               	movlb	4	; () banked
  3379  000DBC  6F00               	movwf	0,b	;volatile
  3380                           
  3381                           ; BSR set to: 4
  3382                           ;usb_device.c: 379: BDT[0].STAT.Val |= 0x80;
  3383  000DBE  0104               	movlb	4	; () banked
  3384  000DC0  8F00               	bsf	0,7,b	;volatile
  3385                           
  3386                           ; BSR set to: 4
  3387                           ;usb_device.c: 382: USBActiveConfiguration = 0;
  3388  000DC2  0E00               	movlw	0
  3389  000DC4  6E29               	movwf	_USBActiveConfiguration,c	;volatile
  3390                           
  3391                           ; BSR set to: 4
  3392                           ;usb_device.c: 384: USB1msTickCount = 0;
  3393  000DC6  0E00               	movlw	0
  3394  000DC8  0100               	movlb	0	; () banked
  3395  000DCA  6F60               	movwf	_USB1msTickCount& (0+255),b	;volatile
  3396  000DCC  0E00               	movlw	0
  3397  000DCE  6F61               	movwf	(_USB1msTickCount+1)& (0+255),b	;volatile
  3398  000DD0  0E00               	movlw	0
  3399  000DD2  6F62               	movwf	(_USB1msTickCount+2)& (0+255),b	;volatile
  3400  000DD4  0E00               	movlw	0
  3401  000DD6  6F63               	movwf	(_USB1msTickCount+3)& (0+255),b	;volatile
  3402                           
  3403                           ; BSR set to: 0
  3404                           ;usb_device.c: 385: USBTicksSinceSuspendEnd = 0;
  3405  000DD8  0E00               	movlw	0
  3406  000DDA  6E25               	movwf	_USBTicksSinceSuspendEnd,c	;volatile
  3407                           
  3408                           ; BSR set to: 0
  3409                           ;usb_device.c: 388: USBDeviceState = DETACHED_STATE;
  3410  000DDC  0E00               	movlw	0
  3411  000DDE  6E21               	movwf	_USBDeviceState,c	;volatile
  3412                           
  3413                           ; BSR set to: 0
  3414  000DE0  0012               	return		;funcret
  3415  000DE2                     __end_ofi2_USBDeviceInit:
  3416                           	opt stack 0
  3417                           pclatu	equ	0xFFB
  3418                           pclath	equ	0xFFA
  3419                           tblptru	equ	0xFF8
  3420                           tblptrh	equ	0xFF7
  3421                           tblptrl	equ	0xFF6
  3422                           tablat	equ	0xFF5
  3423                           prodh	equ	0xFF4
  3424                           prodl	equ	0xFF3
  3425                           intcon	equ	0xFF2
  3426                           postinc0	equ	0xFEE
  3427                           fsr0h	equ	0xFEA
  3428                           fsr0l	equ	0xFE9
  3429                           wreg	equ	0xFE8
  3430                           fsr1h	equ	0xFE2
  3431                           fsr1l	equ	0xFE1
  3432                           indf2	equ	0xFDF
  3433                           postinc2	equ	0xFDE
  3434                           postdec2	equ	0xFDD
  3435                           plusw2	equ	0xFDB
  3436                           fsr2h	equ	0xFDA
  3437                           fsr2l	equ	0xFD9
  3438                           status	equ	0xFD8
  3439                           
  3440 ;; *************** function _USBWakeFromSuspend *****************
  3441 ;; Defined at:
  3442 ;;		line 2321 in file "../src/master/inc/src/usb_device.c"
  3443 ;; Parameters:    Size  Location     Type
  3444 ;;		None
  3445 ;; Auto vars:     Size  Location     Type
  3446 ;;		None
  3447 ;; Return value:  Size  Location     Type
  3448 ;;                  1    wreg      void 
  3449 ;; Registers used:
  3450 ;;		wreg, fsr2l, fsr2h, status,2, status,0, prodl, prodh, cstack
  3451 ;; Tracked objects:
  3452 ;;		On entry : 0/0
  3453 ;;		On exit  : 0/0
  3454 ;;		Unchanged: 0/0
  3455 ;; Data sizes:     COMRAM   BANK0   BANK1   BANK2   BANK3   BANK4   BANK5   BANK6   BANK7
  3456 ;;      Params:         0       0       0       0       0       0       0       0       0
  3457 ;;      Locals:         0       0       0       0       0       0       0       0       0
  3458 ;;      Temps:          0       0       0       0       0       0       0       0       0
  3459 ;;      Totals:         0       0       0       0       0       0       0       0       0
  3460 ;;Total ram usage:        0 bytes
  3461 ;; Hardware stack levels used:    1
  3462 ;; Hardware stack levels required when called:    4
  3463 ;; This function calls:
  3464 ;;		_USER_USB_CALLBACK_EVENT_HANDLER
  3465 ;; This function is called by:
  3466 ;;		_USBDeviceTasks
  3467 ;; This function uses a non-reentrant model
  3468 ;;
  3469                           
  3470                           	psect	text16
  3471  002214                     __ptext16:
  3472                           	opt stack 0
  3473  002214                     _USBWakeFromSuspend:
  3474                           	opt stack 21
  3475                           
  3476                           ;usb_device.c: 2323: USBBusIsSuspended = 0;
  3477                           
  3478                           ; BSR set to: 0
  3479                           ;incstack = 0
  3480  002214  0E00               	movlw	0
  3481  002216  6E1D               	movwf	_USBBusIsSuspended,c	;volatile
  3482                           
  3483                           ;usb_device.c: 2329: USER_USB_CALLBACK_EVENT_HANDLER(EVENT_RESUME,0,0);
  3484  002218  0E00               	movlw	0
  3485  00221A  6E39               	movwf	USER_USB_CALLBACK_EVENT_HANDLER@event+1,c
  3486  00221C  0E74               	movlw	116
  3487  00221E  6E38               	movwf	USER_USB_CALLBACK_EVENT_HANDLER@event,c
  3488  002220  0E00               	movlw	0
  3489  002222  6E3A               	movwf	USER_USB_CALLBACK_EVENT_HANDLER@pdata,c
  3490  002224  0E00               	movlw	0
  3491  002226  6E3B               	movwf	USER_USB_CALLBACK_EVENT_HANDLER@pdata+1,c
  3492  002228  0E00               	movlw	0
  3493  00222A  6E3D               	movwf	USER_USB_CALLBACK_EVENT_HANDLER@size+1,c
  3494  00222C  0E00               	movlw	0
  3495  00222E  6E3C               	movwf	USER_USB_CALLBACK_EVENT_HANDLER@size,c
  3496  002230  ECE0  F00E         	call	_USER_USB_CALLBACK_EVENT_HANDLER	;wreg free
  3497                           
  3498                           ;usb_device.c: 2336: UCONbits.SUSPND = 0;
  3499  002234  926D               	bcf	3949,1,c	;volatile
  3500                           
  3501                           ;usb_device.c: 2341: UIEbits.ACTVIE = 0;
  3502  002236  9469               	bcf	3945,2,c	;volatile
  3503                           
  3504                           ;usb_device.c: 2359: while(UIRbits.ACTVIF)
  3505  002238  D001               	goto	i2l3475
  3506  00223A                     i2l3473:
  3507                           
  3508                           ;usb_device.c: 2361: {
  3509                           ;usb_device.c: 2362: (UIR &= 0xFB);
  3510  00223A  9468               	bcf	3944,2,c	;volatile
  3511  00223C                     i2l3475:
  3512  00223C  B468               	btfsc	3944,2,c	;volatile
  3513  00223E  D7FD               	goto	i2l3473
  3514                           
  3515                           ;usb_device.c: 2363: }
  3516                           ;usb_device.c: 2365: USBTicksSinceSuspendEnd = 0;
  3517  002240  0E00               	movlw	0
  3518  002242  6E25               	movwf	_USBTicksSinceSuspendEnd,c	;volatile
  3519  002244  0012               	return		;funcret
  3520  002246                     __end_of_USBWakeFromSuspend:
  3521                           	opt stack 0
  3522                           pclatu	equ	0xFFB
  3523                           pclath	equ	0xFFA
  3524                           tblptru	equ	0xFF8
  3525                           tblptrh	equ	0xFF7
  3526                           tblptrl	equ	0xFF6
  3527                           tablat	equ	0xFF5
  3528                           prodh	equ	0xFF4
  3529                           prodl	equ	0xFF3
  3530                           intcon	equ	0xFF2
  3531                           postinc0	equ	0xFEE
  3532                           fsr0h	equ	0xFEA
  3533                           fsr0l	equ	0xFE9
  3534                           wreg	equ	0xFE8
  3535                           fsr1h	equ	0xFE2
  3536                           fsr1l	equ	0xFE1
  3537                           indf2	equ	0xFDF
  3538                           postinc2	equ	0xFDE
  3539                           postdec2	equ	0xFDD
  3540                           plusw2	equ	0xFDB
  3541                           fsr2h	equ	0xFDA
  3542                           fsr2l	equ	0xFD9
  3543                           status	equ	0xFD8
  3544                           
  3545 ;; *************** function _USBSuspend *****************
  3546 ;; Defined at:
  3547 ;;		line 2263 in file "../src/master/inc/src/usb_device.c"
  3548 ;; Parameters:    Size  Location     Type
  3549 ;;		None
  3550 ;; Auto vars:     Size  Location     Type
  3551 ;;		None
  3552 ;; Return value:  Size  Location     Type
  3553 ;;                  1    wreg      void 
  3554 ;; Registers used:
  3555 ;;		wreg, fsr2l, fsr2h, status,2, status,0, prodl, prodh, cstack
  3556 ;; Tracked objects:
  3557 ;;		On entry : 0/0
  3558 ;;		On exit  : 0/0
  3559 ;;		Unchanged: 0/0
  3560 ;; Data sizes:     COMRAM   BANK0   BANK1   BANK2   BANK3   BANK4   BANK5   BANK6   BANK7
  3561 ;;      Params:         0       0       0       0       0       0       0       0       0
  3562 ;;      Locals:         0       0       0       0       0       0       0       0       0
  3563 ;;      Temps:          0       0       0       0       0       0       0       0       0
  3564 ;;      Totals:         0       0       0       0       0       0       0       0       0
  3565 ;;Total ram usage:        0 bytes
  3566 ;; Hardware stack levels used:    1
  3567 ;; Hardware stack levels required when called:    4
  3568 ;; This function calls:
  3569 ;;		_USER_USB_CALLBACK_EVENT_HANDLER
  3570 ;; This function is called by:
  3571 ;;		_USBDeviceTasks
  3572 ;; This function uses a non-reentrant model
  3573 ;;
  3574                           
  3575                           	psect	text17
  3576  0022A4                     __ptext17:
  3577                           	opt stack 0
  3578  0022A4                     _USBSuspend:
  3579                           	opt stack 21
  3580                           
  3581                           ;usb_device.c: 2288: UIEbits.ACTVIE = 1;
  3582                           
  3583                           ;incstack = 0
  3584  0022A4  8469               	bsf	3945,2,c	;volatile
  3585                           
  3586                           ;usb_device.c: 2289: (UIR &= 0xEF);
  3587  0022A6  9868               	bcf	3944,4,c	;volatile
  3588                           
  3589                           ;usb_device.c: 2292: UCONbits.SUSPND = 1;
  3590  0022A8  826D               	bsf	3949,1,c	;volatile
  3591                           
  3592                           ;usb_device.c: 2295: USBBusIsSuspended = 1;
  3593  0022AA  0E01               	movlw	1
  3594  0022AC  6E1D               	movwf	_USBBusIsSuspended,c	;volatile
  3595                           
  3596                           ;usb_device.c: 2296: USBTicksSinceSuspendEnd = 0;
  3597  0022AE  0E00               	movlw	0
  3598  0022B0  6E25               	movwf	_USBTicksSinceSuspendEnd,c	;volatile
  3599                           
  3600                           ;usb_device.c: 2303: USER_USB_CALLBACK_EVENT_HANDLER(EVENT_SUSPEND,0,0);
  3601  0022B2  0E00               	movlw	0
  3602  0022B4  6E39               	movwf	USER_USB_CALLBACK_EVENT_HANDLER@event+1,c
  3603  0022B6  0E75               	movlw	117
  3604  0022B8  6E38               	movwf	USER_USB_CALLBACK_EVENT_HANDLER@event,c
  3605  0022BA  0E00               	movlw	0
  3606  0022BC  6E3A               	movwf	USER_USB_CALLBACK_EVENT_HANDLER@pdata,c
  3607  0022BE  0E00               	movlw	0
  3608  0022C0  6E3B               	movwf	USER_USB_CALLBACK_EVENT_HANDLER@pdata+1,c
  3609  0022C2  0E00               	movlw	0
  3610  0022C4  6E3D               	movwf	USER_USB_CALLBACK_EVENT_HANDLER@size+1,c
  3611  0022C6  0E00               	movlw	0
  3612  0022C8  6E3C               	movwf	USER_USB_CALLBACK_EVENT_HANDLER@size,c
  3613  0022CA  ECE0  F00E         	call	_USER_USB_CALLBACK_EVENT_HANDLER	;wreg free
  3614  0022CE  0012               	return		;funcret
  3615  0022D0                     __end_of_USBSuspend:
  3616                           	opt stack 0
  3617                           pclatu	equ	0xFFB
  3618                           pclath	equ	0xFFA
  3619                           tblptru	equ	0xFF8
  3620                           tblptrh	equ	0xFF7
  3621                           tblptrl	equ	0xFF6
  3622                           tablat	equ	0xFF5
  3623                           prodh	equ	0xFF4
  3624                           prodl	equ	0xFF3
  3625                           intcon	equ	0xFF2
  3626                           postinc0	equ	0xFEE
  3627                           fsr0h	equ	0xFEA
  3628                           fsr0l	equ	0xFE9
  3629                           wreg	equ	0xFE8
  3630                           fsr1h	equ	0xFE2
  3631                           fsr1l	equ	0xFE1
  3632                           indf2	equ	0xFDF
  3633                           postinc2	equ	0xFDE
  3634                           postdec2	equ	0xFDD
  3635                           plusw2	equ	0xFDB
  3636                           fsr2h	equ	0xFDA
  3637                           fsr2l	equ	0xFD9
  3638                           status	equ	0xFD8
  3639                           
  3640 ;; *************** function _USBStallHandler *****************
  3641 ;; Defined at:
  3642 ;;		line 2220 in file "../src/master/inc/src/usb_device.c"
  3643 ;; Parameters:    Size  Location     Type
  3644 ;;		None
  3645 ;; Auto vars:     Size  Location     Type
  3646 ;;		None
  3647 ;; Return value:  Size  Location     Type
  3648 ;;                  1    wreg      void 
  3649 ;; Registers used:
  3650 ;;		wreg, fsr2l, fsr2h, status,2, status,0
  3651 ;; Tracked objects:
  3652 ;;		On entry : 0/0
  3653 ;;		On exit  : 0/0
  3654 ;;		Unchanged: 0/0
  3655 ;; Data sizes:     COMRAM   BANK0   BANK1   BANK2   BANK3   BANK4   BANK5   BANK6   BANK7
  3656 ;;      Params:         0       0       0       0       0       0       0       0       0
  3657 ;;      Locals:         0       0       0       0       0       0       0       0       0
  3658 ;;      Temps:          1       0       0       0       0       0       0       0       0
  3659 ;;      Totals:         1       0       0       0       0       0       0       0       0
  3660 ;;Total ram usage:        1 bytes
  3661 ;; Hardware stack levels used:    1
  3662 ;; This function calls:
  3663 ;;		Nothing
  3664 ;; This function is called by:
  3665 ;;		_USBDeviceTasks
  3666 ;; This function uses a non-reentrant model
  3667 ;;
  3668                           
  3669                           	psect	text18
  3670  002042                     __ptext18:
  3671                           	opt stack 0
  3672  002042                     _USBStallHandler:
  3673                           	opt stack 25
  3674                           
  3675                           ;usb_device.c: 2232: if(UEP0bits.EPSTALL == 1)
  3676                           
  3677                           ;incstack = 0
  3678  002042  A070               	btfss	3952,0,c	;volatile
  3679  002044  D01D               	goto	i2l405
  3680                           
  3681                           ;usb_device.c: 2233: {
  3682                           ;usb_device.c: 2235: if((pBDTEntryEP0OutCurrent->STAT.Val == 0x80) && (pBDTEntryIn[0]->S
      +                          TAT.Val == (0x80|0x04)))
  3683  002046  C017  FFD9         	movff	_pBDTEntryEP0OutCurrent,fsr2l
  3684  00204A  C018  FFDA         	movff	_pBDTEntryEP0OutCurrent+1,fsr2h
  3685  00204E  0E80               	movlw	128
  3686  002050  18DE               	xorwf	postinc2,w,c
  3687  002052  A4D8               	btfss	status,2,c
  3688  002054  D014               	goto	i2l2169
  3689  002056  C00F  FFD9         	movff	_pBDTEntryIn,fsr2l
  3690  00205A  C010  FFDA         	movff	_pBDTEntryIn+1,fsr2h
  3691  00205E  0E84               	movlw	132
  3692  002060  18DE               	xorwf	postinc2,w,c
  3693  002062  A4D8               	btfss	status,2,c
  3694  002064  D00C               	goto	i2l2169
  3695                           
  3696                           ;usb_device.c: 2236: {
  3697                           ;usb_device.c: 2238: pBDTEntryEP0OutCurrent->STAT.Val = 0x00|(0x08 & 0x08)|0x04;
  3698  002066  C017  FFD9         	movff	_pBDTEntryEP0OutCurrent,fsr2l
  3699  00206A  C018  FFDA         	movff	_pBDTEntryEP0OutCurrent+1,fsr2h
  3700  00206E  0E0C               	movlw	12
  3701  002070  6EDF               	movwf	indf2,c
  3702                           
  3703                           ;usb_device.c: 2239: pBDTEntryEP0OutCurrent->STAT.Val |= 0x80;
  3704  002072  C017  FFD9         	movff	_pBDTEntryEP0OutCurrent,fsr2l
  3705  002076  C018  FFDA         	movff	_pBDTEntryEP0OutCurrent+1,fsr2h
  3706  00207A  0E00               	movlw	0
  3707  00207C  8EDB               	bsf	plusw2,7,c
  3708  00207E                     i2l2169:
  3709                           
  3710                           ;usb_device.c: 2240: }
  3711                           ;usb_device.c: 2241: UEP0bits.EPSTALL = 0;
  3712  00207E  9070               	bcf	3952,0,c	;volatile
  3713  002080                     i2l405:
  3714                           
  3715                           ;usb_device.c: 2242: }
  3716                           ;usb_device.c: 2244: (UIR &= 0xDF);
  3717  002080  9A68               	bcf	3944,5,c	;volatile
  3718  002082  0012               	return		;funcret
  3719  002084                     __end_of_USBStallHandler:
  3720                           	opt stack 0
  3721                           pclatu	equ	0xFFB
  3722                           pclath	equ	0xFFA
  3723                           tblptru	equ	0xFF8
  3724                           tblptrh	equ	0xFF7
  3725                           tblptrl	equ	0xFF6
  3726                           tablat	equ	0xFF5
  3727                           prodh	equ	0xFF4
  3728                           prodl	equ	0xFF3
  3729                           intcon	equ	0xFF2
  3730                           postinc0	equ	0xFEE
  3731                           fsr0h	equ	0xFEA
  3732                           fsr0l	equ	0xFE9
  3733                           wreg	equ	0xFE8
  3734                           fsr1h	equ	0xFE2
  3735                           fsr1l	equ	0xFE1
  3736                           indf2	equ	0xFDF
  3737                           postinc2	equ	0xFDE
  3738                           postdec2	equ	0xFDD
  3739                           plusw2	equ	0xFDB
  3740                           fsr2h	equ	0xFDA
  3741                           fsr2l	equ	0xFD9
  3742                           status	equ	0xFD8
  3743                           
  3744 ;; *************** function _USBIncrement1msInternalTimers *****************
  3745 ;; Defined at:
  3746 ;;		line 3042 in file "../src/master/inc/src/usb_device.c"
  3747 ;; Parameters:    Size  Location     Type
  3748 ;;		None
  3749 ;; Auto vars:     Size  Location     Type
  3750 ;;		None
  3751 ;; Return value:  Size  Location     Type
  3752 ;;                  1    wreg      void 
  3753 ;; Registers used:
  3754 ;;		wreg, status,2, status,0
  3755 ;; Tracked objects:
  3756 ;;		On entry : 0/0
  3757 ;;		On exit  : 0/0
  3758 ;;		Unchanged: 0/0
  3759 ;; Data sizes:     COMRAM   BANK0   BANK1   BANK2   BANK3   BANK4   BANK5   BANK6   BANK7
  3760 ;;      Params:         0       0       0       0       0       0       0       0       0
  3761 ;;      Locals:         0       0       0       0       0       0       0       0       0
  3762 ;;      Temps:          0       0       0       0       0       0       0       0       0
  3763 ;;      Totals:         0       0       0       0       0       0       0       0       0
  3764 ;;Total ram usage:        0 bytes
  3765 ;; Hardware stack levels used:    1
  3766 ;; This function calls:
  3767 ;;		Nothing
  3768 ;; This function is called by:
  3769 ;;		_USBDeviceTasks
  3770 ;; This function uses a non-reentrant model
  3771 ;;
  3772                           
  3773                           	psect	text19
  3774  00236E                     __ptext19:
  3775                           	opt stack 0
  3776  00236E                     _USBIncrement1msInternalTimers:
  3777                           	opt stack 25
  3778                           
  3779                           ;usb_device.c: 3050: USB1msTickCount++;
  3780                           
  3781                           ;incstack = 0
  3782  00236E  0E01               	movlw	1
  3783  002370  0100               	movlb	0	; () banked
  3784  002372  2760               	addwf	_USB1msTickCount& (0+255),f,b	;volatile
  3785  002374  0E00               	movlw	0
  3786  002376  2361               	addwfc	(_USB1msTickCount+1)& (0+255),f,b	;volatile
  3787  002378  2362               	addwfc	(_USB1msTickCount+2)& (0+255),f,b	;volatile
  3788  00237A  2363               	addwfc	(_USB1msTickCount+3)& (0+255),f,b	;volatile
  3789                           
  3790                           ; BSR set to: 0
  3791                           ;usb_device.c: 3051: if(USBBusIsSuspended == 0)
  3792  00237C  501D               	movf	_USBBusIsSuspended,w,c	;volatile
  3793  00237E  A4D8               	btfss	status,2,c
  3794  002380  0012               	return	
  3795                           
  3796                           ; BSR set to: 0
  3797                           ;usb_device.c: 3052: {
  3798                           ;usb_device.c: 3053: USBTicksSinceSuspendEnd++;
  3799  002382  2A25               	incf	_USBTicksSinceSuspendEnd,f,c	;volatile
  3800                           
  3801                           ; BSR set to: 0
  3802                           ;usb_device.c: 3055: if(USBTicksSinceSuspendEnd == 0)
  3803  002384  5025               	movf	_USBTicksSinceSuspendEnd,w,c	;volatile
  3804  002386  A4D8               	btfss	status,2,c
  3805  002388  0012               	return	
  3806                           
  3807                           ; BSR set to: 0
  3808                           ;usb_device.c: 3056: {
  3809                           ;usb_device.c: 3057: USBTicksSinceSuspendEnd = 255;
  3810  00238A  6825               	setf	_USBTicksSinceSuspendEnd,c	;volatile
  3811                           
  3812                           ; BSR set to: 0
  3813  00238C  0012               	return	
  3814  00238E                     __end_of_USBIncrement1msInternalTimers:
  3815                           	opt stack 0
  3816                           pclatu	equ	0xFFB
  3817                           pclath	equ	0xFFA
  3818                           tblptru	equ	0xFF8
  3819                           tblptrh	equ	0xFF7
  3820                           tblptrl	equ	0xFF6
  3821                           tablat	equ	0xFF5
  3822                           prodh	equ	0xFF4
  3823                           prodl	equ	0xFF3
  3824                           intcon	equ	0xFF2
  3825                           postinc0	equ	0xFEE
  3826                           fsr0h	equ	0xFEA
  3827                           fsr0l	equ	0xFE9
  3828                           wreg	equ	0xFE8
  3829                           fsr1h	equ	0xFE2
  3830                           fsr1l	equ	0xFE1
  3831                           indf2	equ	0xFDF
  3832                           postinc2	equ	0xFDE
  3833                           postdec2	equ	0xFDD
  3834                           plusw2	equ	0xFDB
  3835                           fsr2h	equ	0xFDA
  3836                           fsr2l	equ	0xFD9
  3837                           status	equ	0xFD8
  3838                           
  3839 ;; *************** function _USBCtrlEPService *****************
  3840 ;; Defined at:
  3841 ;;		line 2390 in file "../src/master/inc/src/usb_device.c"
  3842 ;; Parameters:    Size  Location     Type
  3843 ;;		None
  3844 ;; Auto vars:     Size  Location     Type
  3845 ;;		None
  3846 ;; Return value:  Size  Location     Type
  3847 ;;                  1    wreg      void 
  3848 ;; Registers used:
  3849 ;;		wreg, fsr0l, fsr0h, fsr1l, fsr1h, fsr2l, fsr2h, status,2, status,0, tblptrl, tblptrh, tblptru, prodl, prodh, cstack
  3850 ;; Tracked objects:
  3851 ;;		On entry : 0/0
  3852 ;;		On exit  : 0/0
  3853 ;;		Unchanged: 0/0
  3854 ;; Data sizes:     COMRAM   BANK0   BANK1   BANK2   BANK3   BANK4   BANK5   BANK6   BANK7
  3855 ;;      Params:         0       0       0       0       0       0       0       0       0
  3856 ;;      Locals:         0       0       0       0       0       0       0       0       0
  3857 ;;      Temps:          1       0       0       0       0       0       0       0       0
  3858 ;;      Totals:         1       0       0       0       0       0       0       0       0
  3859 ;;Total ram usage:        1 bytes
  3860 ;; Hardware stack levels used:    1
  3861 ;; Hardware stack levels required when called:    7
  3862 ;; This function calls:
  3863 ;;		_USBCtrlTrfInHandler
  3864 ;;		_USBCtrlTrfOutHandler
  3865 ;;		_USBCtrlTrfSetupHandler
  3866 ;;		_memcpy
  3867 ;; This function is called by:
  3868 ;;		_USBDeviceTasks
  3869 ;; This function uses a non-reentrant model
  3870 ;;
  3871                           
  3872                           	psect	text20
  3873  001B3A                     __ptext20:
  3874                           	opt stack 0
  3875  001B3A                     _USBCtrlEPService:
  3876                           	opt stack 18
  3877                           
  3878                           ;usb_device.c: 2396: USBStatusStageTimeoutCounter = (uint8_t)45;
  3879                           
  3880                           ; BSR set to: 0
  3881                           ;incstack = 0
  3882  001B3A  0E2D               	movlw	45
  3883  001B3C  6E24               	movwf	_USBStatusStageTimeoutCounter,c	;volatile
  3884                           
  3885                           ;usb_device.c: 2400: if((USTATcopy.Val & ~0x02) == 0x00)
  3886  001B3E  C02B  F046         	movff	_USTATcopy,??_USBCtrlEPService	;volatile
  3887  001B42  0EFD               	movlw	253
  3888  001B44  1646               	andwf	??_USBCtrlEPService,f,c
  3889  001B46  A4D8               	btfss	status,2,c
  3890  001B48  D038               	goto	i2l3519
  3891                           
  3892                           ;usb_device.c: 2401: {
  3893                           ;usb_device.c: 2404: pBDTEntryEP0OutCurrent = (volatile BDT_ENTRY*)&BDT[(USTATcopy.Val &
      +                           0x7E)>>1];
  3894  001B4A  C02B  F046         	movff	_USTATcopy,??_USBCtrlEPService	;volatile
  3895  001B4E  90D8               	bcf	status,0,c
  3896  001B50  3246               	rrcf	??_USBCtrlEPService,f,c
  3897  001B52  0E3F               	movlw	63
  3898  001B54  1646               	andwf	??_USBCtrlEPService,f,c
  3899  001B56  5046               	movf	??_USBCtrlEPService,w,c
  3900  001B58  0D04               	mullw	4
  3901  001B5A  0E00               	movlw	0
  3902  001B5C  24F3               	addwf	prodl,w,c
  3903  001B5E  6E17               	movwf	_pBDTEntryEP0OutCurrent,c
  3904  001B60  0E04               	movlw	4
  3905  001B62  20F4               	addwfc	prodh,w,c
  3906  001B64  6E18               	movwf	_pBDTEntryEP0OutCurrent+1,c
  3907                           
  3908                           ;usb_device.c: 2412: pBDTEntryEP0OutNext = pBDTEntryEP0OutCurrent;
  3909  001B66  C017  F019         	movff	_pBDTEntryEP0OutCurrent,_pBDTEntryEP0OutNext
  3910  001B6A  C018  F01A         	movff	_pBDTEntryEP0OutCurrent+1,_pBDTEntryEP0OutNext+1
  3911                           
  3912                           ;usb_device.c: 2414: ((uint8_t_VAL*)&pBDTEntryEP0OutNext)->Val ^= 0x0004;
  3913  001B6E  0E04               	movlw	4
  3914  001B70  1A19               	xorwf	_pBDTEntryEP0OutNext,f,c
  3915                           
  3916                           ;usb_device.c: 2417: if(pBDTEntryEP0OutCurrent->STAT.PID == 0xD)
  3917  001B72  C017  FFD9         	movff	_pBDTEntryEP0OutCurrent,fsr2l
  3918  001B76  C018  FFDA         	movff	_pBDTEntryEP0OutCurrent+1,fsr2h
  3919  001B7A  30DF               	rrcf	indf2,w,c
  3920  001B7C  32E8               	rrcf	wreg,f,c
  3921  001B7E  0B0F               	andlw	15
  3922  001B80  0A0D               	xorlw	13
  3923  001B82  A4D8               	btfss	status,2,c
  3924  001B84  D017               	goto	i2l3517
  3925                           
  3926                           ;usb_device.c: 2418: {
  3927                           ;usb_device.c: 2423: memcpy((uint8_t*)&SetupPkt, (uint8_t*)((void *)(pBDTEntryEP0OutCurr
      +                          ent->ADR)), 8);
  3928  001B86  0E20               	movlw	32
  3929  001B88  6E2C               	movwf	memcpy@d1,c
  3930  001B8A  0E04               	movlw	4
  3931  001B8C  6E2D               	movwf	memcpy@d1+1,c
  3932  001B8E  EE20 F002          	lfsr	2,2
  3933  001B92  5017               	movf	_pBDTEntryEP0OutCurrent,w,c
  3934  001B94  26D9               	addwf	fsr2l,f,c
  3935  001B96  5018               	movf	_pBDTEntryEP0OutCurrent+1,w,c
  3936  001B98  22DA               	addwfc	fsr2h,f,c
  3937  001B9A  CFDE F02E          	movff	postinc2,memcpy@s1
  3938  001B9E  CFDD F02F          	movff	postdec2,memcpy@s1+1
  3939  001BA2  0E00               	movlw	0
  3940  001BA4  6E31               	movwf	memcpy@n+1,c
  3941  001BA6  0E08               	movlw	8
  3942  001BA8  6E30               	movwf	memcpy@n,c
  3943  001BAA  EC42  F010         	call	_memcpy	;wreg free
  3944                           
  3945                           ;usb_device.c: 2426: USBCtrlTrfSetupHandler();
  3946  001BAE  EC29  F00E         	call	_USBCtrlTrfSetupHandler	;wreg free
  3947                           
  3948                           ;usb_device.c: 2427: }
  3949  001BB2  0012               	return	
  3950  001BB4                     i2l3517:
  3951                           
  3952                           ;usb_device.c: 2428: else
  3953                           ;usb_device.c: 2429: {
  3954                           ;usb_device.c: 2431: USBCtrlTrfOutHandler();
  3955  001BB4  EC7C  F00F         	call	_USBCtrlTrfOutHandler	;wreg free
  3956                           
  3957                           ;usb_device.c: 2432: }
  3958                           ;usb_device.c: 2433: }
  3959  001BB8  0012               	return	
  3960  001BBA                     i2l3519:
  3961                           
  3962                           ;usb_device.c: 2434: else if((USTATcopy.Val & ~0x02) == 0x04)
  3963  001BBA  502B               	movf	_USTATcopy,w,c	;volatile
  3964  001BBC  0BFD               	andlw	253
  3965  001BBE  0A04               	xorlw	4
  3966  001BC0  A4D8               	btfss	status,2,c
  3967  001BC2  0012               	return	
  3968                           
  3969                           ;usb_device.c: 2435: {
  3970                           ;usb_device.c: 2438: USBCtrlTrfInHandler();
  3971  001BC4  EC57  F00C         	call	_USBCtrlTrfInHandler	;wreg free
  3972  001BC8  0012               	return	
  3973  001BCA                     __end_of_USBCtrlEPService:
  3974                           	opt stack 0
  3975                           pclatu	equ	0xFFB
  3976                           pclath	equ	0xFFA
  3977                           tblptru	equ	0xFF8
  3978                           tblptrh	equ	0xFF7
  3979                           tblptrl	equ	0xFF6
  3980                           tablat	equ	0xFF5
  3981                           prodh	equ	0xFF4
  3982                           prodl	equ	0xFF3
  3983                           intcon	equ	0xFF2
  3984                           postinc0	equ	0xFEE
  3985                           fsr0h	equ	0xFEA
  3986                           fsr0l	equ	0xFE9
  3987                           wreg	equ	0xFE8
  3988                           fsr1h	equ	0xFE2
  3989                           fsr1l	equ	0xFE1
  3990                           indf2	equ	0xFDF
  3991                           postinc2	equ	0xFDE
  3992                           postdec2	equ	0xFDD
  3993                           plusw2	equ	0xFDB
  3994                           fsr2h	equ	0xFDA
  3995                           fsr2l	equ	0xFD9
  3996                           status	equ	0xFD8
  3997                           
  3998 ;; *************** function _memcpy *****************
  3999 ;; Defined at:
  4000 ;;		line 11 in file "C:\Program Files (x86)\Microchip\xc8\v1.36\sources\common\memcpy.c"
  4001 ;; Parameters:    Size  Location     Type
  4002 ;;  d1              2    0[COMRAM] PTR void 
  4003 ;;		 -> SetupPkt(8), 
  4004 ;;  s1              2    2[COMRAM] PTR const void 
  4005 ;;		 -> ReceivedDataBuffer(64), RAM(2047), CtrlTrfData(8), SetupPkt(8), 
  4006 ;;  n               2    4[COMRAM] unsigned int 
  4007 ;; Auto vars:     Size  Location     Type
  4008 ;;  s               2    8[COMRAM] PTR const unsigned char 
  4009 ;;		 -> ReceivedDataBuffer(64), RAM(2047), CtrlTrfData(8), SetupPkt(8), 
  4010 ;;  d               2    6[COMRAM] PTR unsigned char 
  4011 ;;		 -> SetupPkt(8), 
  4012 ;; Return value:  Size  Location     Type
  4013 ;;                  2    0[COMRAM] PTR void 
  4014 ;; Registers used:
  4015 ;;		wreg, fsr1l, fsr1h, fsr2l, fsr2h, status,2, status,0
  4016 ;; Tracked objects:
  4017 ;;		On entry : 0/0
  4018 ;;		On exit  : 0/0
  4019 ;;		Unchanged: 0/0
  4020 ;; Data sizes:     COMRAM   BANK0   BANK1   BANK2   BANK3   BANK4   BANK5   BANK6   BANK7
  4021 ;;      Params:         6       0       0       0       0       0       0       0       0
  4022 ;;      Locals:         4       0       0       0       0       0       0       0       0
  4023 ;;      Temps:          0       0       0       0       0       0       0       0       0
  4024 ;;      Totals:        10       0       0       0       0       0       0       0       0
  4025 ;;Total ram usage:       10 bytes
  4026 ;; Hardware stack levels used:    1
  4027 ;; This function calls:
  4028 ;;		Nothing
  4029 ;; This function is called by:
  4030 ;;		_USBCtrlEPService
  4031 ;; This function uses a non-reentrant model
  4032 ;;
  4033                           
  4034                           	psect	text21
  4035  002084                     __ptext21:
  4036                           	opt stack 0
  4037  002084                     _memcpy:
  4038                           	opt stack 24
  4039                           
  4040                           ;incstack = 0
  4041  002084  C02E  F034         	movff	memcpy@s1,memcpy@s
  4042  002088  C02F  F035         	movff	memcpy@s1+1,memcpy@s+1
  4043  00208C  C02C  F032         	movff	memcpy@d1,memcpy@d
  4044  002090  C02D  F033         	movff	memcpy@d1+1,memcpy@d+1
  4045  002094  D00E               	goto	i2l3373
  4046  002096                     i2l3367:
  4047  002096  C034  FFD9         	movff	memcpy@s,fsr2l
  4048  00209A  C035  FFDA         	movff	memcpy@s+1,fsr2h
  4049  00209E  C032  FFE1         	movff	memcpy@d,fsr1l
  4050  0020A2  C033  FFE2         	movff	memcpy@d+1,fsr1h
  4051  0020A6  CFDF FFE7          	movff	indf2,indf1
  4052  0020AA  4A34               	infsnz	memcpy@s,f,c
  4053  0020AC  2A35               	incf	memcpy@s+1,f,c
  4054  0020AE  4A32               	infsnz	memcpy@d,f,c
  4055  0020B0  2A33               	incf	memcpy@d+1,f,c
  4056  0020B2                     i2l3373:
  4057  0020B2  0630               	decf	memcpy@n,f,c
  4058  0020B4  A0D8               	btfss	status,0,c
  4059  0020B6  0631               	decf	memcpy@n+1,f,c
  4060  0020B8  2830               	incf	memcpy@n,w,c
  4061  0020BA  E1ED               	bnz	i2l3367
  4062  0020BC  2831               	incf	memcpy@n+1,w,c
  4063  0020BE  B4D8               	btfsc	status,2,c
  4064  0020C0  0012               	return	
  4065  0020C2  D7E9               	goto	i2l3367
  4066  0020C4                     __end_of_memcpy:
  4067                           	opt stack 0
  4068                           pclatu	equ	0xFFB
  4069                           pclath	equ	0xFFA
  4070                           tblptru	equ	0xFF8
  4071                           tblptrh	equ	0xFF7
  4072                           tblptrl	equ	0xFF6
  4073                           tablat	equ	0xFF5
  4074                           prodh	equ	0xFF4
  4075                           prodl	equ	0xFF3
  4076                           intcon	equ	0xFF2
  4077                           postinc0	equ	0xFEE
  4078                           fsr0h	equ	0xFEA
  4079                           fsr0l	equ	0xFE9
  4080                           wreg	equ	0xFE8
  4081                           indf1	equ	0xFE7
  4082                           fsr1h	equ	0xFE2
  4083                           fsr1l	equ	0xFE1
  4084                           indf2	equ	0xFDF
  4085                           postinc2	equ	0xFDE
  4086                           postdec2	equ	0xFDD
  4087                           plusw2	equ	0xFDB
  4088                           fsr2h	equ	0xFDA
  4089                           fsr2l	equ	0xFD9
  4090                           status	equ	0xFD8
  4091                           
  4092 ;; *************** function _USBCtrlTrfSetupHandler *****************
  4093 ;; Defined at:
  4094 ;;		line 2483 in file "../src/master/inc/src/usb_device.c"
  4095 ;; Parameters:    Size  Location     Type
  4096 ;;		None
  4097 ;; Auto vars:     Size  Location     Type
  4098 ;;		None
  4099 ;; Return value:  Size  Location     Type
  4100 ;;                  1    wreg      void 
  4101 ;; Registers used:
  4102 ;;		wreg, fsr0l, fsr0h, fsr2l, fsr2h, status,2, status,0, tblptrl, tblptrh, tblptru, prodl, prodh, cstack
  4103 ;; Tracked objects:
  4104 ;;		On entry : 0/0
  4105 ;;		On exit  : 0/0
  4106 ;;		Unchanged: 0/0
  4107 ;; Data sizes:     COMRAM   BANK0   BANK1   BANK2   BANK3   BANK4   BANK5   BANK6   BANK7
  4108 ;;      Params:         0       0       0       0       0       0       0       0       0
  4109 ;;      Locals:         0       0       0       0       0       0       0       0       0
  4110 ;;      Temps:          0       0       0       0       0       0       0       0       0
  4111 ;;      Totals:         0       0       0       0       0       0       0       0       0
  4112 ;;Total ram usage:        0 bytes
  4113 ;; Hardware stack levels used:    1
  4114 ;; Hardware stack levels required when called:    6
  4115 ;; This function calls:
  4116 ;;		_USBCheckStdRequest
  4117 ;;		_USBCtrlEPServiceComplete
  4118 ;;		_USER_USB_CALLBACK_EVENT_HANDLER
  4119 ;; This function is called by:
  4120 ;;		_USBCtrlEPService
  4121 ;; This function uses a non-reentrant model
  4122 ;;
  4123                           
  4124                           	psect	text22
  4125  001C52                     __ptext22:
  4126                           	opt stack 0
  4127  001C52                     _USBCtrlTrfSetupHandler:
  4128                           	opt stack 18
  4129                           
  4130                           ;usb_device.c: 2488: shortPacketStatus = 0;
  4131                           
  4132                           ;incstack = 0
  4133  001C52  0E00               	movlw	0
  4134  001C54  6E28               	movwf	_shortPacketStatus,c	;volatile
  4135                           
  4136                           ;usb_device.c: 2489: USBDeferStatusStagePacket = 0;
  4137  001C56  0E00               	movlw	0
  4138  001C58  6E20               	movwf	_USBDeferStatusStagePacket,c	;volatile
  4139                           
  4140                           ;usb_device.c: 2490: USBDeferINDataStagePackets = 0;
  4141  001C5A  0E00               	movlw	0
  4142  001C5C  6E1E               	movwf	_USBDeferINDataStagePackets,c	;volatile
  4143                           
  4144                           ;usb_device.c: 2491: USBDeferOUTDataStagePackets = 0;
  4145  001C5E  0E00               	movlw	0
  4146  001C60  6E1F               	movwf	_USBDeferOUTDataStagePackets,c	;volatile
  4147                           
  4148                           ;usb_device.c: 2492: BothEP0OutUOWNsSet = 0;
  4149  001C62  0E00               	movlw	0
  4150  001C64  6E1B               	movwf	_BothEP0OutUOWNsSet,c	;volatile
  4151                           
  4152                           ;usb_device.c: 2493: controlTransferState = 0;
  4153  001C66  0E00               	movlw	0
  4154  001C68  6E26               	movwf	_controlTransferState,c	;volatile
  4155                           
  4156                           ;usb_device.c: 2502: pBDTEntryIn[0]->STAT.Val &= ~(0x80);
  4157  001C6A  C00F  FFD9         	movff	_pBDTEntryIn,fsr2l
  4158  001C6E  C010  FFDA         	movff	_pBDTEntryIn+1,fsr2h
  4159  001C72  0E7F               	movlw	127
  4160  001C74  16DF               	andwf	indf2,f,c
  4161                           
  4162                           ;usb_device.c: 2503: ((uint8_t_VAL*)&pBDTEntryIn[0])->Val ^= 0x0004;
  4163  001C76  0E04               	movlw	4
  4164  001C78  1A0F               	xorwf	_pBDTEntryIn,f,c
  4165                           
  4166                           ;usb_device.c: 2504: pBDTEntryIn[0]->STAT.Val &= ~(0x80);
  4167  001C7A  C00F  FFD9         	movff	_pBDTEntryIn,fsr2l
  4168  001C7E  C010  FFDA         	movff	_pBDTEntryIn+1,fsr2h
  4169  001C82  0E7F               	movlw	127
  4170  001C84  16DF               	andwf	indf2,f,c
  4171                           
  4172                           ;usb_device.c: 2505: ((uint8_t_VAL*)&pBDTEntryIn[0])->Val ^= 0x0004;
  4173  001C86  0E04               	movlw	4
  4174  001C88  1A0F               	xorwf	_pBDTEntryIn,f,c
  4175                           
  4176                           ;usb_device.c: 2506: pBDTEntryEP0OutNext->STAT.Val &= ~(0x80);
  4177  001C8A  C019  FFD9         	movff	_pBDTEntryEP0OutNext,fsr2l
  4178  001C8E  C01A  FFDA         	movff	_pBDTEntryEP0OutNext+1,fsr2h
  4179  001C92  0E7F               	movlw	127
  4180  001C94  16DF               	andwf	indf2,f,c
  4181                           
  4182                           ;usb_device.c: 2508: inPipes[0].info.Val = 0;
  4183  001C96  0E00               	movlw	0
  4184  001C98  6E0C               	movwf	_inPipes+3,c	;volatile
  4185                           
  4186                           ;usb_device.c: 2509: inPipes[0].wCount.Val = 0;
  4187  001C9A  0E00               	movlw	0
  4188  001C9C  6E0E               	movwf	_inPipes+5,c	;volatile
  4189  001C9E  0E00               	movlw	0
  4190  001CA0  6E0D               	movwf	_inPipes+4,c	;volatile
  4191                           
  4192                           ;usb_device.c: 2510: outPipes[0].info.Val = 0;
  4193  001CA2  0E00               	movlw	0
  4194  001CA4  6E04               	movwf	_outPipes+3,c	;volatile
  4195                           
  4196                           ;usb_device.c: 2511: outPipes[0].wCount.Val = 0;
  4197  001CA6  0E00               	movlw	0
  4198  001CA8  6E06               	movwf	_outPipes+5,c	;volatile
  4199  001CAA  0E00               	movlw	0
  4200  001CAC  6E05               	movwf	_outPipes+4,c	;volatile
  4201                           
  4202                           ;usb_device.c: 2517: USBCheckStdRequest();
  4203  001CAE  EC83  F009         	call	_USBCheckStdRequest	;wreg free
  4204                           
  4205                           ;usb_device.c: 2518: USER_USB_CALLBACK_EVENT_HANDLER(EVENT_EP0_REQUEST,0,0);
  4206  001CB2  0E00               	movlw	0
  4207  001CB4  6E39               	movwf	USER_USB_CALLBACK_EVENT_HANDLER@event+1,c
  4208  001CB6  0E03               	movlw	3
  4209  001CB8  6E38               	movwf	USER_USB_CALLBACK_EVENT_HANDLER@event,c
  4210  001CBA  0E00               	movlw	0
  4211  001CBC  6E3A               	movwf	USER_USB_CALLBACK_EVENT_HANDLER@pdata,c
  4212  001CBE  0E00               	movlw	0
  4213  001CC0  6E3B               	movwf	USER_USB_CALLBACK_EVENT_HANDLER@pdata+1,c
  4214  001CC2  0E00               	movlw	0
  4215  001CC4  6E3D               	movwf	USER_USB_CALLBACK_EVENT_HANDLER@size+1,c
  4216  001CC6  0E00               	movlw	0
  4217  001CC8  6E3C               	movwf	USER_USB_CALLBACK_EVENT_HANDLER@size,c
  4218  001CCA  ECE0  F00E         	call	_USER_USB_CALLBACK_EVENT_HANDLER	;wreg free
  4219                           
  4220                           ;usb_device.c: 2531: USBCtrlEPServiceComplete();
  4221  001CCE  EC9D  F008         	call	_USBCtrlEPServiceComplete	;wreg free
  4222  001CD2  0012               	return		;funcret
  4223  001CD4                     __end_of_USBCtrlTrfSetupHandler:
  4224                           	opt stack 0
  4225                           pclatu	equ	0xFFB
  4226                           pclath	equ	0xFFA
  4227                           tblptru	equ	0xFF8
  4228                           tblptrh	equ	0xFF7
  4229                           tblptrl	equ	0xFF6
  4230                           tablat	equ	0xFF5
  4231                           prodh	equ	0xFF4
  4232                           prodl	equ	0xFF3
  4233                           intcon	equ	0xFF2
  4234                           postinc0	equ	0xFEE
  4235                           fsr0h	equ	0xFEA
  4236                           fsr0l	equ	0xFE9
  4237                           wreg	equ	0xFE8
  4238                           indf1	equ	0xFE7
  4239                           fsr1h	equ	0xFE2
  4240                           fsr1l	equ	0xFE1
  4241                           indf2	equ	0xFDF
  4242                           postinc2	equ	0xFDE
  4243                           postdec2	equ	0xFDD
  4244                           plusw2	equ	0xFDB
  4245                           fsr2h	equ	0xFDA
  4246                           fsr2l	equ	0xFD9
  4247                           status	equ	0xFD8
  4248                           
  4249 ;; *************** function _USBCtrlEPServiceComplete *****************
  4250 ;; Defined at:
  4251 ;;		line 1634 in file "../src/master/inc/src/usb_device.c"
  4252 ;; Parameters:    Size  Location     Type
  4253 ;;		None
  4254 ;; Auto vars:     Size  Location     Type
  4255 ;;		None
  4256 ;; Return value:  Size  Location     Type
  4257 ;;                  1    wreg      void 
  4258 ;; Registers used:
  4259 ;;		wreg, fsr0l, fsr0h, fsr2l, fsr2h, status,2, status,0, tblptrl, tblptrh, tblptru, cstack
  4260 ;; Tracked objects:
  4261 ;;		On entry : 0/0
  4262 ;;		On exit  : 0/0
  4263 ;;		Unchanged: 0/0
  4264 ;; Data sizes:     COMRAM   BANK0   BANK1   BANK2   BANK3   BANK4   BANK5   BANK6   BANK7
  4265 ;;      Params:         0       0       0       0       0       0       0       0       0
  4266 ;;      Locals:         0       0       0       0       0       0       0       0       0
  4267 ;;      Temps:          0       0       0       0       0       0       0       0       0
  4268 ;;      Totals:         0       0       0       0       0       0       0       0       0
  4269 ;;Total ram usage:        0 bytes
  4270 ;; Hardware stack levels used:    1
  4271 ;; Hardware stack levels required when called:    2
  4272 ;; This function calls:
  4273 ;;		_USBCtrlEPAllowDataStage
  4274 ;;		_USBCtrlEPAllowStatusStage
  4275 ;; This function is called by:
  4276 ;;		_USBCtrlTrfSetupHandler
  4277 ;; This function uses a non-reentrant model
  4278 ;;
  4279                           
  4280                           	psect	text23
  4281  00113A                     __ptext23:
  4282                           	opt stack 0
  4283  00113A                     _USBCtrlEPServiceComplete:
  4284                           	opt stack 21
  4285                           
  4286                           ;usb_device.c: 1640: UCONbits.PKTDIS = 0;
  4287                           
  4288                           ;incstack = 0
  4289  00113A  986D               	bcf	3949,4,c	;volatile
  4290                           
  4291                           ;usb_device.c: 1646: if(inPipes[0].info.bits.busy == 0)
  4292  00113C  BE0C               	btfsc	_inPipes+3,7,c	;volatile
  4293  00113E  D038               	goto	i2l329
  4294                           
  4295                           ;usb_device.c: 1647: {
  4296                           ;usb_device.c: 1648: if(outPipes[0].info.bits.busy == 1)
  4297  001140  AE04               	btfss	_outPipes+3,7,c	;volatile
  4298  001142  D00B               	goto	i2l3289
  4299                           
  4300                           ;usb_device.c: 1649: {
  4301                           ;usb_device.c: 1650: controlTransferState = 2;
  4302  001144  0E02               	movlw	2
  4303  001146  6E26               	movwf	_controlTransferState,c	;volatile
  4304                           
  4305                           ;usb_device.c: 1661: if(USBDeferOUTDataStagePackets == 0)
  4306  001148  501F               	movf	_USBDeferOUTDataStagePackets,w,c	;volatile
  4307  00114A  B4D8               	btfsc	status,2,c
  4308                           
  4309                           ;usb_device.c: 1662: {
  4310                           ;usb_device.c: 1663: USBCtrlEPAllowDataStage();
  4311  00114C  EC07  F00D         	call	_USBCtrlEPAllowDataStage	;wreg free
  4312                           
  4313                           ;usb_device.c: 1664: }
  4314                           ;usb_device.c: 1668: USBStatusStageEnabledFlag2 = 0;
  4315  001150  0E00               	movlw	0
  4316  001152  6E23               	movwf	_USBStatusStageEnabledFlag2,c	;volatile
  4317                           
  4318                           ;usb_device.c: 1669: USBStatusStageEnabledFlag1 = 0;
  4319  001154  0E00               	movlw	0
  4320  001156  6E22               	movwf	_USBStatusStageEnabledFlag1,c	;volatile
  4321                           
  4322                           ;usb_device.c: 1670: }
  4323  001158  0012               	return	
  4324  00115A                     i2l3289:
  4325                           
  4326                           ;usb_device.c: 1671: else
  4327                           ;usb_device.c: 1672: {
  4328                           ;usb_device.c: 1677: pBDTEntryEP0OutNext->CNT = 8;
  4329  00115A  EE20 F001          	lfsr	2,1
  4330  00115E  5019               	movf	_pBDTEntryEP0OutNext,w,c
  4331  001160  26D9               	addwf	fsr2l,f,c
  4332  001162  501A               	movf	_pBDTEntryEP0OutNext+1,w,c
  4333  001164  22DA               	addwfc	fsr2h,f,c
  4334  001166  0E08               	movlw	8
  4335  001168  6EDF               	movwf	indf2,c
  4336                           
  4337                           ;usb_device.c: 1678: pBDTEntryEP0OutNext->ADR = ((uint16_t)(&SetupPkt));
  4338  00116A  EE20 F002          	lfsr	2,2
  4339  00116E  5019               	movf	_pBDTEntryEP0OutNext,w,c
  4340  001170  26D9               	addwf	fsr2l,f,c
  4341  001172  501A               	movf	_pBDTEntryEP0OutNext+1,w,c
  4342  001174  22DA               	addwfc	fsr2h,f,c
  4343  001176  0E20               	movlw	32
  4344  001178  6EDE               	movwf	postinc2,c
  4345  00117A  0E04               	movlw	4
  4346  00117C  6EDD               	movwf	postdec2,c
  4347                           
  4348                           ;usb_device.c: 1679: pBDTEntryEP0OutNext->STAT.Val = 0x00|(0x08 & 0x08)|0x04;
  4349  00117E  C019  FFD9         	movff	_pBDTEntryEP0OutNext,fsr2l
  4350  001182  C01A  FFDA         	movff	_pBDTEntryEP0OutNext+1,fsr2h
  4351  001186  0E0C               	movlw	12
  4352  001188  6EDF               	movwf	indf2,c
  4353                           
  4354                           ;usb_device.c: 1680: pBDTEntryEP0OutNext->STAT.Val |= 0x80;
  4355  00118A  C019  FFD9         	movff	_pBDTEntryEP0OutNext,fsr2l
  4356  00118E  C01A  FFDA         	movff	_pBDTEntryEP0OutNext+1,fsr2h
  4357  001192  0E00               	movlw	0
  4358  001194  8EDB               	bsf	plusw2,7,c
  4359                           
  4360                           ;usb_device.c: 1681: pBDTEntryIn[0]->STAT.Val = 0x04;
  4361  001196  C00F  FFD9         	movff	_pBDTEntryIn,fsr2l
  4362  00119A  C010  FFDA         	movff	_pBDTEntryIn+1,fsr2h
  4363  00119E  0E04               	movlw	4
  4364  0011A0  6EDF               	movwf	indf2,c
  4365                           
  4366                           ;usb_device.c: 1682: pBDTEntryIn[0]->STAT.Val |= 0x80;
  4367  0011A2  C00F  FFD9         	movff	_pBDTEntryIn,fsr2l
  4368  0011A6  C010  FFDA         	movff	_pBDTEntryIn+1,fsr2h
  4369  0011AA  0E00               	movlw	0
  4370  0011AC  8EDB               	bsf	plusw2,7,c
  4371                           
  4372                           ;usb_device.c: 1683: }
  4373                           ;usb_device.c: 1684: }
  4374  0011AE  0012               	return	
  4375  0011B0                     i2l329:
  4376                           
  4377                           ;usb_device.c: 1685: else
  4378                           ;usb_device.c: 1686: {
  4379                           ;usb_device.c: 1687: if(SetupPkt.DataDir == (0x80>>7))
  4380  0011B0  0104               	movlb	4	; () banked
  4381  0011B2  AF20               	btfss	32,7,b	;volatile
  4382  0011B4  D010               	goto	i2l3309
  4383                           
  4384                           ; BSR set to: 4
  4385                           ;usb_device.c: 1688: {
  4386                           ;usb_device.c: 1689: controlTransferState = 1;
  4387  0011B6  0E01               	movlw	1
  4388  0011B8  6E26               	movwf	_controlTransferState,c	;volatile
  4389                           
  4390                           ;usb_device.c: 1703: if(USBDeferINDataStagePackets == 0)
  4391  0011BA  501E               	movf	_USBDeferINDataStagePackets,w,c	;volatile
  4392  0011BC  B4D8               	btfsc	status,2,c
  4393                           
  4394                           ; BSR set to: 4
  4395                           ;usb_device.c: 1704: {
  4396                           ;usb_device.c: 1705: USBCtrlEPAllowDataStage();
  4397  0011BE  EC07  F00D         	call	_USBCtrlEPAllowDataStage	;wreg free
  4398                           
  4399                           ;usb_device.c: 1706: }
  4400                           ;usb_device.c: 1728: USBStatusStageEnabledFlag2 = 0;
  4401  0011C2  0E00               	movlw	0
  4402  0011C4  6E23               	movwf	_USBStatusStageEnabledFlag2,c	;volatile
  4403                           
  4404                           ;usb_device.c: 1729: USBStatusStageEnabledFlag1 = 0;
  4405  0011C6  0E00               	movlw	0
  4406  0011C8  6E22               	movwf	_USBStatusStageEnabledFlag1,c	;volatile
  4407                           
  4408                           ;usb_device.c: 1730: if(USBDeferStatusStagePacket == 0)
  4409  0011CA  5020               	movf	_USBDeferStatusStagePacket,w,c	;volatile
  4410  0011CC  A4D8               	btfss	status,2,c
  4411  0011CE  0012               	return	
  4412                           
  4413                           ;usb_device.c: 1731: {
  4414                           ;usb_device.c: 1732: USBCtrlEPAllowStatusStage();
  4415  0011D0  EC99  F00B         	call	_USBCtrlEPAllowStatusStage	;wreg free
  4416                           
  4417                           ;usb_device.c: 1733: }
  4418                           ;usb_device.c: 1734: }
  4419  0011D4  0012               	return	
  4420  0011D6                     i2l3309:
  4421                           
  4422                           ;usb_device.c: 1735: else
  4423                           ;usb_device.c: 1736: {
  4424                           ;usb_device.c: 1747: controlTransferState = 2;
  4425  0011D6  0E02               	movlw	2
  4426  0011D8  6E26               	movwf	_controlTransferState,c	;volatile
  4427                           
  4428                           ;usb_device.c: 1750: pBDTEntryEP0OutNext->CNT = 8;
  4429  0011DA  EE20 F001          	lfsr	2,1
  4430  0011DE  5019               	movf	_pBDTEntryEP0OutNext,w,c
  4431  0011E0  26D9               	addwf	fsr2l,f,c
  4432  0011E2  501A               	movf	_pBDTEntryEP0OutNext+1,w,c
  4433  0011E4  22DA               	addwfc	fsr2h,f,c
  4434  0011E6  0E08               	movlw	8
  4435  0011E8  6EDF               	movwf	indf2,c
  4436                           
  4437                           ;usb_device.c: 1751: pBDTEntryEP0OutNext->ADR = ((uint16_t)(&SetupPkt));
  4438  0011EA  EE20 F002          	lfsr	2,2
  4439  0011EE  5019               	movf	_pBDTEntryEP0OutNext,w,c
  4440  0011F0  26D9               	addwf	fsr2l,f,c
  4441  0011F2  501A               	movf	_pBDTEntryEP0OutNext+1,w,c
  4442  0011F4  22DA               	addwfc	fsr2h,f,c
  4443  0011F6  0E20               	movlw	32
  4444  0011F8  6EDE               	movwf	postinc2,c
  4445  0011FA  0E04               	movlw	4
  4446  0011FC  6EDD               	movwf	postdec2,c
  4447                           
  4448                           ;usb_device.c: 1752: pBDTEntryEP0OutNext->STAT.Val = 0x04;
  4449  0011FE  C019  FFD9         	movff	_pBDTEntryEP0OutNext,fsr2l
  4450  001202  C01A  FFDA         	movff	_pBDTEntryEP0OutNext+1,fsr2h
  4451  001206  0E04               	movlw	4
  4452  001208  6EDF               	movwf	indf2,c
  4453                           
  4454                           ;usb_device.c: 1753: pBDTEntryEP0OutNext->STAT.Val |= 0x80;
  4455  00120A  C019  FFD9         	movff	_pBDTEntryEP0OutNext,fsr2l
  4456  00120E  C01A  FFDA         	movff	_pBDTEntryEP0OutNext+1,fsr2h
  4457  001212  0E00               	movlw	0
  4458  001214  8EDB               	bsf	plusw2,7,c
  4459                           
  4460                           ;usb_device.c: 1756: USBStatusStageEnabledFlag2 = 0;
  4461  001216  0E00               	movlw	0
  4462  001218  6E23               	movwf	_USBStatusStageEnabledFlag2,c	;volatile
  4463                           
  4464                           ;usb_device.c: 1757: USBStatusStageEnabledFlag1 = 0;
  4465  00121A  0E00               	movlw	0
  4466  00121C  6E22               	movwf	_USBStatusStageEnabledFlag1,c	;volatile
  4467                           
  4468                           ;usb_device.c: 1758: if(USBDeferStatusStagePacket == 0)
  4469  00121E  5020               	movf	_USBDeferStatusStagePacket,w,c	;volatile
  4470  001220  A4D8               	btfss	status,2,c
  4471  001222  0012               	return	
  4472                           
  4473                           ;usb_device.c: 1759: {
  4474                           ;usb_device.c: 1760: USBCtrlEPAllowStatusStage();
  4475  001224  EC99  F00B         	call	_USBCtrlEPAllowStatusStage	;wreg free
  4476  001228  0012               	return	
  4477  00122A                     __end_of_USBCtrlEPServiceComplete:
  4478                           	opt stack 0
  4479                           pclatu	equ	0xFFB
  4480                           pclath	equ	0xFFA
  4481                           tblptru	equ	0xFF8
  4482                           tblptrh	equ	0xFF7
  4483                           tblptrl	equ	0xFF6
  4484                           tablat	equ	0xFF5
  4485                           prodh	equ	0xFF4
  4486                           prodl	equ	0xFF3
  4487                           intcon	equ	0xFF2
  4488                           postinc0	equ	0xFEE
  4489                           fsr0h	equ	0xFEA
  4490                           fsr0l	equ	0xFE9
  4491                           wreg	equ	0xFE8
  4492                           indf1	equ	0xFE7
  4493                           fsr1h	equ	0xFE2
  4494                           fsr1l	equ	0xFE1
  4495                           indf2	equ	0xFDF
  4496                           postinc2	equ	0xFDE
  4497                           postdec2	equ	0xFDD
  4498                           plusw2	equ	0xFDB
  4499                           fsr2h	equ	0xFDA
  4500                           fsr2l	equ	0xFD9
  4501                           status	equ	0xFD8
  4502                           
  4503 ;; *************** function _USBCtrlEPAllowDataStage *****************
  4504 ;; Defined at:
  4505 ;;		line 1506 in file "../src/master/inc/src/usb_device.c"
  4506 ;; Parameters:    Size  Location     Type
  4507 ;;		None
  4508 ;; Auto vars:     Size  Location     Type
  4509 ;;		None
  4510 ;; Return value:  Size  Location     Type
  4511 ;;                  1    wreg      void 
  4512 ;; Registers used:
  4513 ;;		wreg, fsr0l, fsr0h, fsr2l, fsr2h, status,2, status,0, tblptrl, tblptrh, tblptru, cstack
  4514 ;; Tracked objects:
  4515 ;;		On entry : 0/0
  4516 ;;		On exit  : 0/0
  4517 ;;		Unchanged: 0/0
  4518 ;; Data sizes:     COMRAM   BANK0   BANK1   BANK2   BANK3   BANK4   BANK5   BANK6   BANK7
  4519 ;;      Params:         0       0       0       0       0       0       0       0       0
  4520 ;;      Locals:         0       0       0       0       0       0       0       0       0
  4521 ;;      Temps:          0       0       0       0       0       0       0       0       0
  4522 ;;      Totals:         0       0       0       0       0       0       0       0       0
  4523 ;;Total ram usage:        0 bytes
  4524 ;; Hardware stack levels used:    1
  4525 ;; Hardware stack levels required when called:    1
  4526 ;; This function calls:
  4527 ;;		_USBCtrlTrfTxService
  4528 ;; This function is called by:
  4529 ;;		_USBCtrlEPServiceComplete
  4530 ;; This function uses a non-reentrant model
  4531 ;;
  4532                           
  4533                           	psect	text24
  4534  001A0E                     __ptext24:
  4535                           	opt stack 0
  4536  001A0E                     _USBCtrlEPAllowDataStage:
  4537                           	opt stack 21
  4538                           
  4539                           ;usb_device.c: 1508: USBDeferINDataStagePackets = 0;
  4540                           
  4541                           ;incstack = 0
  4542  001A0E  0E00               	movlw	0
  4543  001A10  6E1E               	movwf	_USBDeferINDataStagePackets,c	;volatile
  4544                           
  4545                           ;usb_device.c: 1509: USBDeferOUTDataStagePackets = 0;
  4546  001A12  0E00               	movlw	0
  4547  001A14  6E1F               	movwf	_USBDeferOUTDataStagePackets,c	;volatile
  4548                           
  4549                           ;usb_device.c: 1511: if(controlTransferState == 2)
  4550  001A16  0E02               	movlw	2
  4551  001A18  1826               	xorwf	_controlTransferState,w,c	;volatile
  4552  001A1A  A4D8               	btfss	status,2,c
  4553  001A1C  D01F               	goto	i2l3083
  4554                           
  4555                           ;usb_device.c: 1512: {
  4556                           ;usb_device.c: 1514: pBDTEntryEP0OutNext->CNT = 8;
  4557  001A1E  EE20 F001          	lfsr	2,1
  4558  001A22  5019               	movf	_pBDTEntryEP0OutNext,w,c
  4559  001A24  26D9               	addwf	fsr2l,f,c
  4560  001A26  501A               	movf	_pBDTEntryEP0OutNext+1,w,c
  4561  001A28  22DA               	addwfc	fsr2h,f,c
  4562  001A2A  0E08               	movlw	8
  4563  001A2C  6EDF               	movwf	indf2,c
  4564                           
  4565                           ;usb_device.c: 1515: pBDTEntryEP0OutNext->ADR = ((uint16_t)(&CtrlTrfData));
  4566  001A2E  EE20 F002          	lfsr	2,2
  4567  001A32  5019               	movf	_pBDTEntryEP0OutNext,w,c
  4568  001A34  26D9               	addwf	fsr2l,f,c
  4569  001A36  501A               	movf	_pBDTEntryEP0OutNext+1,w,c
  4570  001A38  22DA               	addwfc	fsr2h,f,c
  4571  001A3A  0E28               	movlw	40
  4572  001A3C  6EDE               	movwf	postinc2,c
  4573  001A3E  0E04               	movlw	4
  4574  001A40  6EDD               	movwf	postdec2,c
  4575                           
  4576                           ;usb_device.c: 1516: pBDTEntryEP0OutNext->STAT.Val = 0x40|(0x08 & 0x08);
  4577  001A42  C019  FFD9         	movff	_pBDTEntryEP0OutNext,fsr2l
  4578  001A46  C01A  FFDA         	movff	_pBDTEntryEP0OutNext+1,fsr2h
  4579  001A4A  0E48               	movlw	72
  4580  001A4C  6EDF               	movwf	indf2,c
  4581                           
  4582                           ;usb_device.c: 1517: pBDTEntryEP0OutNext->STAT.Val |= 0x80;
  4583  001A4E  C019  FFD9         	movff	_pBDTEntryEP0OutNext,fsr2l
  4584  001A52  C01A  FFDA         	movff	_pBDTEntryEP0OutNext+1,fsr2h
  4585  001A56  0E00               	movlw	0
  4586  001A58  8EDB               	bsf	plusw2,7,c
  4587                           
  4588                           ;usb_device.c: 1518: }
  4589  001A5A  0012               	return	
  4590  001A5C                     i2l3083:
  4591                           
  4592                           ;usb_device.c: 1519: else
  4593                           ;usb_device.c: 1520: {
  4594                           ;usb_device.c: 1523: if(SetupPkt.wLength < inPipes[0].wCount.Val)
  4595  001A5C  500D               	movf	_inPipes+4,w,c	;volatile
  4596  001A5E  0104               	movlb	4	; () banked
  4597  001A60  5D26               	subwf	38,w,b	;volatile
  4598  001A62  500E               	movf	_inPipes+5,w,c	;volatile
  4599  001A64  0104               	movlb	4	; () banked
  4600  001A66  5927               	subwfb	39,w,b	;volatile
  4601  001A68  B0D8               	btfsc	status,0,c
  4602  001A6A  D004               	goto	i2l3087
  4603                           
  4604                           ; BSR set to: 4
  4605                           ;usb_device.c: 1524: {
  4606                           ;usb_device.c: 1525: inPipes[0].wCount.Val = SetupPkt.wLength;
  4607  001A6C  C426 F00D          	movff	1062,_inPipes+4	;volatile
  4608  001A70  C427 F00E          	movff	1063,_inPipes+5	;volatile
  4609  001A74                     i2l3087:
  4610                           
  4611                           ; BSR set to: 4
  4612                           ;usb_device.c: 1526: }
  4613                           ;usb_device.c: 1527: USBCtrlTrfTxService();
  4614  001A74  EC32  F00B         	call	_USBCtrlTrfTxService	;wreg free
  4615                           
  4616                           ;usb_device.c: 1532: pBDTEntryIn[0]->ADR = ((uint16_t)(&CtrlTrfData));
  4617  001A78  EE20 F002          	lfsr	2,2
  4618  001A7C  500F               	movf	_pBDTEntryIn,w,c
  4619  001A7E  26D9               	addwf	fsr2l,f,c
  4620  001A80  5010               	movf	_pBDTEntryIn+1,w,c
  4621  001A82  22DA               	addwfc	fsr2h,f,c
  4622  001A84  0E28               	movlw	40
  4623  001A86  6EDE               	movwf	postinc2,c
  4624  001A88  0E04               	movlw	4
  4625  001A8A  6EDD               	movwf	postdec2,c
  4626                           
  4627                           ;usb_device.c: 1533: pBDTEntryIn[0]->STAT.Val = 0x40|(0x08 & 0x08);
  4628  001A8C  C00F  FFD9         	movff	_pBDTEntryIn,fsr2l
  4629  001A90  C010  FFDA         	movff	_pBDTEntryIn+1,fsr2h
  4630  001A94  0E48               	movlw	72
  4631  001A96  6EDF               	movwf	indf2,c
  4632                           
  4633                           ;usb_device.c: 1534: pBDTEntryIn[0]->STAT.Val |= 0x80;
  4634  001A98  C00F  FFD9         	movff	_pBDTEntryIn,fsr2l
  4635  001A9C  C010  FFDA         	movff	_pBDTEntryIn+1,fsr2h
  4636  001AA0  0E00               	movlw	0
  4637  001AA2  8EDB               	bsf	plusw2,7,c
  4638  001AA4  0012               	return	
  4639  001AA6                     __end_of_USBCtrlEPAllowDataStage:
  4640                           	opt stack 0
  4641                           pclatu	equ	0xFFB
  4642                           pclath	equ	0xFFA
  4643                           tblptru	equ	0xFF8
  4644                           tblptrh	equ	0xFF7
  4645                           tblptrl	equ	0xFF6
  4646                           tablat	equ	0xFF5
  4647                           prodh	equ	0xFF4
  4648                           prodl	equ	0xFF3
  4649                           intcon	equ	0xFF2
  4650                           postinc0	equ	0xFEE
  4651                           fsr0h	equ	0xFEA
  4652                           fsr0l	equ	0xFE9
  4653                           wreg	equ	0xFE8
  4654                           indf1	equ	0xFE7
  4655                           fsr1h	equ	0xFE2
  4656                           fsr1l	equ	0xFE1
  4657                           indf2	equ	0xFDF
  4658                           postinc2	equ	0xFDE
  4659                           postdec2	equ	0xFDD
  4660                           plusw2	equ	0xFDB
  4661                           fsr2h	equ	0xFDA
  4662                           fsr2l	equ	0xFD9
  4663                           status	equ	0xFD8
  4664                           
  4665 ;; *************** function _USBCheckStdRequest *****************
  4666 ;; Defined at:
  4667 ;;		line 2703 in file "../src/master/inc/src/usb_device.c"
  4668 ;; Parameters:    Size  Location     Type
  4669 ;;		None
  4670 ;; Auto vars:     Size  Location     Type
  4671 ;;		None
  4672 ;; Return value:  Size  Location     Type
  4673 ;;                  1    wreg      void 
  4674 ;; Registers used:
  4675 ;;		wreg, fsr0l, fsr0h, fsr2l, fsr2h, status,2, status,0, tblptrl, tblptrh, tblptru, prodl, prodh, cstack
  4676 ;; Tracked objects:
  4677 ;;		On entry : 0/0
  4678 ;;		On exit  : 0/0
  4679 ;;		Unchanged: 0/0
  4680 ;; Data sizes:     COMRAM   BANK0   BANK1   BANK2   BANK3   BANK4   BANK5   BANK6   BANK7
  4681 ;;      Params:         0       0       0       0       0       0       0       0       0
  4682 ;;      Locals:         0       0       0       0       0       0       0       0       0
  4683 ;;      Temps:          0       0       0       0       0       0       0       0       0
  4684 ;;      Totals:         0       0       0       0       0       0       0       0       0
  4685 ;;Total ram usage:        0 bytes
  4686 ;; Hardware stack levels used:    1
  4687 ;; Hardware stack levels required when called:    5
  4688 ;; This function calls:
  4689 ;;		_USBStdFeatureReqHandler
  4690 ;;		_USBStdGetDscHandler
  4691 ;;		_USBStdGetStatusHandler
  4692 ;;		_USBStdSetCfgHandler
  4693 ;;		_USER_USB_CALLBACK_EVENT_HANDLER
  4694 ;; This function is called by:
  4695 ;;		_USBCtrlTrfSetupHandler
  4696 ;; This function uses a non-reentrant model
  4697 ;;
  4698                           
  4699                           	psect	text25
  4700  001306                     __ptext25:
  4701                           	opt stack 0
  4702  001306                     _USBCheckStdRequest:
  4703                           	opt stack 18
  4704                           
  4705                           ;usb_device.c: 2705: if(SetupPkt.RequestType != (0x00>>5)) return;
  4706                           
  4707                           ;incstack = 0
  4708  001306  0104               	movlb	4	; () banked
  4709  001308  3920               	swapf	32,w,b	;volatile
  4710  00130A  32E8               	rrcf	wreg,f,c
  4711  00130C  0B03               	andlw	3
  4712  00130E  0900               	iorlw	0
  4713  001310  A4D8               	btfss	status,2,c
  4714  001312  0012               	return	
  4715  001314  D043               	goto	i2l3363
  4716  001316                     i2l454:
  4717                           
  4718                           ; BSR set to: 4
  4719                           ;usb_device.c: 2710: inPipes[0].info.bits.busy = 1;
  4720  001316  8E0C               	bsf	_inPipes+3,7,c	;volatile
  4721                           
  4722                           ; BSR set to: 4
  4723                           ;usb_device.c: 2711: USBDeviceState = ADR_PENDING_STATE;
  4724  001318  0E08               	movlw	8
  4725  00131A  6E21               	movwf	_USBDeviceState,c	;volatile
  4726                           
  4727                           ;usb_device.c: 2713: break;
  4728  00131C  0012               	return	
  4729  00131E                     i2l3333:
  4730                           
  4731                           ; BSR set to: 4
  4732                           ;usb_device.c: 2715: USBStdGetDscHandler();
  4733  00131E  EC87  F007         	call	_USBStdGetDscHandler	;wreg free
  4734                           
  4735                           ;usb_device.c: 2716: break;
  4736  001322  0012               	return	
  4737  001324                     i2l3335:
  4738                           
  4739                           ;usb_device.c: 2718: USBStdSetCfgHandler();
  4740  001324  EC15  F009         	call	_USBStdSetCfgHandler	;wreg free
  4741                           
  4742                           ;usb_device.c: 2719: break;
  4743  001328  0012               	return	
  4744  00132A                     i2l3337:
  4745                           
  4746                           ;usb_device.c: 2721: inPipes[0].pSrc.bRam = (uint8_t*)&USBActiveConfiguration;
  4747  00132A  0E29               	movlw	low _USBActiveConfiguration
  4748  00132C  6E09               	movwf	_inPipes,c	;volatile
  4749  00132E  0E00               	movlw	high _USBActiveConfiguration
  4750  001330  6E0A               	movwf	_inPipes+1,c	;volatile
  4751                           
  4752                           ;usb_device.c: 2722: inPipes[0].info.bits.ctrl_trf_mem = 0x01;
  4753  001332  800C               	bsf	_inPipes+3,0,c	;volatile
  4754                           
  4755                           ;usb_device.c: 2723: inPipes[0].wCount.v[0] = 1;
  4756  001334  0E01               	movlw	1
  4757  001336  6E0D               	movwf	_inPipes+4,c	;volatile
  4758                           
  4759                           ;usb_device.c: 2724: inPipes[0].info.bits.busy = 1;
  4760  001338  8E0C               	bsf	_inPipes+3,7,c	;volatile
  4761                           
  4762                           ;usb_device.c: 2725: break;
  4763  00133A  0012               	return	
  4764  00133C                     i2l3345:
  4765                           
  4766                           ;usb_device.c: 2727: USBStdGetStatusHandler();
  4767  00133C  ECB2  F00C         	call	_USBStdGetStatusHandler	;wreg free
  4768                           
  4769                           ;usb_device.c: 2728: break;
  4770  001340  0012               	return	
  4771  001342                     i2l3347:
  4772                           
  4773                           ;usb_device.c: 2730: case 3:
  4774                           ;usb_device.c: 2731: USBStdFeatureReqHandler();
  4775  001342  EC64  F004         	call	_USBStdFeatureReqHandler	;wreg free
  4776                           
  4777                           ;usb_device.c: 2732: break;
  4778  001346  0012               	return	
  4779  001348                     i2l3349:
  4780                           
  4781                           ;usb_device.c: 2734: inPipes[0].pSrc.bRam = (uint8_t*)&USBAlternateInterface[SetupPkt.bI
      +                          ntfID];
  4782  001348  0104               	movlb	4	; () banked
  4783  00134A  5124               	movf	36,w,b	;volatile
  4784  00134C  0D01               	mullw	1
  4785  00134E  0E2A               	movlw	low _USBAlternateInterface
  4786  001350  24F3               	addwf	prodl,w,c
  4787  001352  6E09               	movwf	_inPipes,c	;volatile
  4788  001354  0E00               	movlw	high _USBAlternateInterface
  4789  001356  20F4               	addwfc	prodh,w,c
  4790  001358  6E0A               	movwf	_inPipes+1,c	;volatile
  4791                           
  4792                           ; BSR set to: 4
  4793                           ;usb_device.c: 2735: inPipes[0].info.bits.ctrl_trf_mem = 0x01;
  4794  00135A  800C               	bsf	_inPipes+3,0,c	;volatile
  4795                           
  4796                           ; BSR set to: 4
  4797                           ;usb_device.c: 2736: inPipes[0].wCount.v[0] = 1;
  4798  00135C  0E01               	movlw	1
  4799  00135E  6E0D               	movwf	_inPipes+4,c	;volatile
  4800                           
  4801                           ; BSR set to: 4
  4802                           ;usb_device.c: 2737: inPipes[0].info.bits.busy = 1;
  4803  001360  8E0C               	bsf	_inPipes+3,7,c	;volatile
  4804                           
  4805                           ;usb_device.c: 2738: break;
  4806  001362  0012               	return	
  4807  001364                     i2l463:
  4808                           
  4809                           ; BSR set to: 4
  4810                           ;usb_device.c: 2740: inPipes[0].info.bits.busy = 1;
  4811  001364  8E0C               	bsf	_inPipes+3,7,c	;volatile
  4812                           
  4813                           ; BSR set to: 4
  4814                           ;usb_device.c: 2741: USBAlternateInterface[SetupPkt.bIntfID] = SetupPkt.bAltID;
  4815  001366  0104               	movlb	4	; () banked
  4816  001368  5124               	movf	36,w,b	;volatile
  4817  00136A  0D01               	mullw	1
  4818  00136C  0E2A               	movlw	low _USBAlternateInterface
  4819  00136E  24F3               	addwf	prodl,w,c
  4820  001370  6ED9               	movwf	fsr2l,c
  4821  001372  0E00               	movlw	high _USBAlternateInterface
  4822  001374  20F4               	addwfc	prodh,w,c
  4823  001376  6EDA               	movwf	fsr2h,c
  4824  001378  C422 FFDF          	movff	1058,indf2	;volatile
  4825                           
  4826                           ;usb_device.c: 2742: break;
  4827  00137C  0012               	return	
  4828  00137E                     i2l3359:
  4829                           
  4830                           ; BSR set to: 4
  4831                           ;usb_device.c: 2744: USER_USB_CALLBACK_EVENT_HANDLER(EVENT_SET_DESCRIPTOR,0,0);
  4832  00137E  0E00               	movlw	0
  4833  001380  6E39               	movwf	USER_USB_CALLBACK_EVENT_HANDLER@event+1,c
  4834  001382  0E02               	movlw	2
  4835  001384  6E38               	movwf	USER_USB_CALLBACK_EVENT_HANDLER@event,c
  4836  001386  0E00               	movlw	0
  4837  001388  6E3A               	movwf	USER_USB_CALLBACK_EVENT_HANDLER@pdata,c
  4838  00138A  0E00               	movlw	0
  4839  00138C  6E3B               	movwf	USER_USB_CALLBACK_EVENT_HANDLER@pdata+1,c
  4840  00138E  0E00               	movlw	0
  4841  001390  6E3D               	movwf	USER_USB_CALLBACK_EVENT_HANDLER@size+1,c
  4842  001392  0E00               	movlw	0
  4843  001394  6E3C               	movwf	USER_USB_CALLBACK_EVENT_HANDLER@size,c
  4844  001396  ECE0  F00E         	call	_USER_USB_CALLBACK_EVENT_HANDLER	;wreg free
  4845                           
  4846                           ;usb_device.c: 2749: }
  4847                           
  4848                           ;usb_device.c: 2748: break;
  4849                           
  4850                           ;usb_device.c: 2747: default:
  4851                           
  4852                           ;usb_device.c: 2746: case 12:
  4853                           
  4854                           ;usb_device.c: 2745: break;
  4855  00139A  0012               	return	
  4856  00139C                     i2l3363:
  4857  00139C  0104               	movlb	4	; () banked
  4858  00139E  5121               	movf	33,w,b	;volatile
  4859                           
  4860                           ; Switch size 1, requested type "space"
  4861                           ; Number of cases is 11, Range of values is 0 to 12
  4862                           ; switch strategies available:
  4863                           ; Name         Instructions Cycles
  4864                           ; simple_byte           34    18 (average)
  4865                           ;	Chosen strategy is simple_byte
  4866  0013A0  0A00               	xorlw	0	; case 0
  4867  0013A2  B4D8               	btfsc	status,2,c
  4868  0013A4  D7CB               	goto	i2l3345
  4869  0013A6  0A01               	xorlw	1	; case 1
  4870  0013A8  B4D8               	btfsc	status,2,c
  4871  0013AA  D7CB               	goto	i2l3347
  4872  0013AC  0A02               	xorlw	2	; case 3
  4873  0013AE  B4D8               	btfsc	status,2,c
  4874  0013B0  D7C8               	goto	i2l3347
  4875  0013B2  0A06               	xorlw	6	; case 5
  4876  0013B4  B4D8               	btfsc	status,2,c
  4877  0013B6  D7AF               	goto	i2l454
  4878  0013B8  0A03               	xorlw	3	; case 6
  4879  0013BA  B4D8               	btfsc	status,2,c
  4880  0013BC  D7B0               	goto	i2l3333
  4881  0013BE  0A01               	xorlw	1	; case 7
  4882  0013C0  B4D8               	btfsc	status,2,c
  4883  0013C2  D7DD               	goto	i2l3359
  4884  0013C4  0A0F               	xorlw	15	; case 8
  4885  0013C6  B4D8               	btfsc	status,2,c
  4886  0013C8  D7B0               	goto	i2l3337
  4887  0013CA  0A01               	xorlw	1	; case 9
  4888  0013CC  B4D8               	btfsc	status,2,c
  4889  0013CE  D7AA               	goto	i2l3335
  4890  0013D0  0A03               	xorlw	3	; case 10
  4891  0013D2  B4D8               	btfsc	status,2,c
  4892  0013D4  D7B9               	goto	i2l3349
  4893  0013D6  0A01               	xorlw	1	; case 11
  4894  0013D8  B4D8               	btfsc	status,2,c
  4895  0013DA  D7C4               	goto	i2l463
  4896  0013DC  0A07               	xorlw	7	; case 12
  4897  0013DE  0012               	return	
  4898  0013E0                     __end_of_USBCheckStdRequest:
  4899                           	opt stack 0
  4900                           pclatu	equ	0xFFB
  4901                           pclath	equ	0xFFA
  4902                           tblptru	equ	0xFF8
  4903                           tblptrh	equ	0xFF7
  4904                           tblptrl	equ	0xFF6
  4905                           tablat	equ	0xFF5
  4906                           prodh	equ	0xFF4
  4907                           prodl	equ	0xFF3
  4908                           intcon	equ	0xFF2
  4909                           postinc0	equ	0xFEE
  4910                           fsr0h	equ	0xFEA
  4911                           fsr0l	equ	0xFE9
  4912                           wreg	equ	0xFE8
  4913                           indf1	equ	0xFE7
  4914                           fsr1h	equ	0xFE2
  4915                           fsr1l	equ	0xFE1
  4916                           indf2	equ	0xFDF
  4917                           postinc2	equ	0xFDE
  4918                           postdec2	equ	0xFDD
  4919                           plusw2	equ	0xFDB
  4920                           fsr2h	equ	0xFDA
  4921                           fsr2l	equ	0xFD9
  4922                           status	equ	0xFD8
  4923                           
  4924 ;; *************** function _USBStdSetCfgHandler *****************
  4925 ;; Defined at:
  4926 ;;		line 1986 in file "../src/master/inc/src/usb_device.c"
  4927 ;; Parameters:    Size  Location     Type
  4928 ;;		None
  4929 ;; Auto vars:     Size  Location     Type
  4930 ;;  i               1   20[COMRAM] unsigned char 
  4931 ;; Return value:  Size  Location     Type
  4932 ;;                  1    wreg      void 
  4933 ;; Registers used:
  4934 ;;		wreg, fsr2l, fsr2h, status,2, status,0, prodl, prodh, cstack
  4935 ;; Tracked objects:
  4936 ;;		On entry : 0/0
  4937 ;;		On exit  : 0/0
  4938 ;;		Unchanged: 0/0
  4939 ;; Data sizes:     COMRAM   BANK0   BANK1   BANK2   BANK3   BANK4   BANK5   BANK6   BANK7
  4940 ;;      Params:         0       0       0       0       0       0       0       0       0
  4941 ;;      Locals:         1       0       0       0       0       0       0       0       0
  4942 ;;      Temps:          0       0       0       0       0       0       0       0       0
  4943 ;;      Totals:         1       0       0       0       0       0       0       0       0
  4944 ;;Total ram usage:        1 bytes
  4945 ;; Hardware stack levels used:    1
  4946 ;; Hardware stack levels required when called:    4
  4947 ;; This function calls:
  4948 ;;		_USER_USB_CALLBACK_EVENT_HANDLER
  4949 ;;		i2_memset
  4950 ;; This function is called by:
  4951 ;;		_USBCheckStdRequest
  4952 ;; This function uses a non-reentrant model
  4953 ;;
  4954                           
  4955                           	psect	text26
  4956  00122A                     __ptext26:
  4957                           	opt stack 0
  4958  00122A                     _USBStdSetCfgHandler:
  4959                           	opt stack 18
  4960                           
  4961                           ;usb_device.c: 1988: uint8_t i;
  4962                           ;usb_device.c: 1991: inPipes[0].info.bits.busy = 1;
  4963                           
  4964                           ;incstack = 0
  4965  00122A  8E0C               	bsf	_inPipes+3,7,c	;volatile
  4966                           
  4967                           ;usb_device.c: 1994: memset((void*)&UEP1,0x00,(1));;
  4968  00122C  0E71               	movlw	113
  4969  00122E  6E2C               	movwf	i2memset@p1,c
  4970  001230  0E0F               	movlw	15
  4971  001232  6E2D               	movwf	i2memset@p1+1,c
  4972  001234  0E00               	movlw	0
  4973  001236  6E2F               	movwf	i2memset@c+1,c
  4974  001238  0E00               	movlw	0
  4975  00123A  6E2E               	movwf	i2memset@c,c
  4976  00123C  0E00               	movlw	0
  4977  00123E  6E31               	movwf	i2memset@n+1,c
  4978  001240  0E01               	movlw	1
  4979  001242  6E30               	movwf	i2memset@n,c
  4980  001244  EC68  F011         	call	i2_memset	;wreg free
  4981                           
  4982                           ;usb_device.c: 1997: memset((void*)&BDT[0], 0x00, sizeof(BDT));
  4983  001248  0E00               	movlw	0
  4984  00124A  6E2C               	movwf	i2memset@p1,c
  4985  00124C  0E04               	movlw	4
  4986  00124E  6E2D               	movwf	i2memset@p1+1,c
  4987  001250  0E00               	movlw	0
  4988  001252  6E2F               	movwf	i2memset@c+1,c
  4989  001254  0E00               	movlw	0
  4990  001256  6E2E               	movwf	i2memset@c,c
  4991  001258  0E00               	movlw	0
  4992  00125A  6E31               	movwf	i2memset@n+1,c
  4993  00125C  0E20               	movlw	32
  4994  00125E  6E30               	movwf	i2memset@n,c
  4995  001260  EC68  F011         	call	i2_memset	;wreg free
  4996                           
  4997                           ;usb_device.c: 2000: UCONbits.PPBRST = 1;
  4998  001264  8C6D               	bsf	3949,6,c	;volatile
  4999                           
  5000                           ;usb_device.c: 2005: for(i = 0; i < (uint8_t)(1+1u); i++)
  5001  001266  0E00               	movlw	0
  5002  001268  6E40               	movwf	USBStdSetCfgHandler@i,c
  5003  00126A                     i2l3103:
  5004  00126A  0E01               	movlw	1
  5005  00126C  6440               	cpfsgt	USBStdSetCfgHandler@i,c
  5006  00126E  D001               	goto	i2l3107
  5007  001270  D016               	goto	i2l3113
  5008  001272                     i2l3107:
  5009                           
  5010                           ;usb_device.c: 2006: {
  5011                           ;usb_device.c: 2007: ep_data_in[i].Val = 0u;
  5012  001272  5040               	movf	USBStdSetCfgHandler@i,w,c
  5013  001274  0D01               	mullw	1
  5014  001276  0E13               	movlw	low _ep_data_in
  5015  001278  24F3               	addwf	prodl,w,c
  5016  00127A  6ED9               	movwf	fsr2l,c
  5017  00127C  0E00               	movlw	high _ep_data_in
  5018  00127E  20F4               	addwfc	prodh,w,c
  5019  001280  6EDA               	movwf	fsr2h,c
  5020  001282  0E00               	movlw	0
  5021  001284  6EDF               	movwf	indf2,c
  5022                           
  5023                           ;usb_device.c: 2008: ep_data_out[i].Val = 0u;
  5024  001286  5040               	movf	USBStdSetCfgHandler@i,w,c
  5025  001288  0D01               	mullw	1
  5026  00128A  0E15               	movlw	low _ep_data_out
  5027  00128C  24F3               	addwf	prodl,w,c
  5028  00128E  6ED9               	movwf	fsr2l,c
  5029  001290  0E00               	movlw	high _ep_data_out
  5030  001292  20F4               	addwfc	prodh,w,c
  5031  001294  6EDA               	movwf	fsr2h,c
  5032  001296  0E00               	movlw	0
  5033  001298  6EDF               	movwf	indf2,c
  5034  00129A  2A40               	incf	USBStdSetCfgHandler@i,f,c
  5035  00129C  D7E6               	goto	i2l3103
  5036  00129E                     i2l3113:
  5037                           
  5038                           ;usb_device.c: 2009: }
  5039                           ;usb_device.c: 2012: memset((void*)&USBAlternateInterface,0x00,1);
  5040  00129E  0E2A               	movlw	low _USBAlternateInterface
  5041  0012A0  6E2C               	movwf	i2memset@p1,c
  5042  0012A2  0E00               	movlw	high _USBAlternateInterface
  5043  0012A4  6E2D               	movwf	i2memset@p1+1,c
  5044  0012A6  0E00               	movlw	0
  5045  0012A8  6E2F               	movwf	i2memset@c+1,c
  5046  0012AA  0E00               	movlw	0
  5047  0012AC  6E2E               	movwf	i2memset@c,c
  5048  0012AE  0E00               	movlw	0
  5049  0012B0  6E31               	movwf	i2memset@n+1,c
  5050  0012B2  0E01               	movlw	1
  5051  0012B4  6E30               	movwf	i2memset@n,c
  5052  0012B6  EC68  F011         	call	i2_memset	;wreg free
  5053                           
  5054                           ;usb_device.c: 2015: UCONbits.PPBRST = 0;
  5055  0012BA  9C6D               	bcf	3949,6,c	;volatile
  5056                           
  5057                           ;usb_device.c: 2017: pBDTEntryIn[0] = (volatile BDT_ENTRY*)&BDT[2];
  5058  0012BC  0E08               	movlw	8
  5059  0012BE  6E0F               	movwf	_pBDTEntryIn,c
  5060  0012C0  0E04               	movlw	4
  5061  0012C2  6E10               	movwf	_pBDTEntryIn+1,c
  5062                           
  5063                           ;usb_device.c: 2020: pBDTEntryEP0OutCurrent = (volatile BDT_ENTRY*)&BDT[0];
  5064  0012C4  0E00               	movlw	0
  5065  0012C6  6E17               	movwf	_pBDTEntryEP0OutCurrent,c
  5066  0012C8  0E04               	movlw	4
  5067  0012CA  6E18               	movwf	_pBDTEntryEP0OutCurrent+1,c
  5068                           
  5069                           ;usb_device.c: 2021: pBDTEntryEP0OutNext = pBDTEntryEP0OutCurrent;
  5070  0012CC  C017  F019         	movff	_pBDTEntryEP0OutCurrent,_pBDTEntryEP0OutNext
  5071  0012D0  C018  F01A         	movff	_pBDTEntryEP0OutCurrent+1,_pBDTEntryEP0OutNext+1
  5072                           
  5073                           ;usb_device.c: 2024: USBActiveConfiguration = SetupPkt.bConfigurationValue;
  5074  0012D4  C422 F029          	movff	1058,_USBActiveConfiguration	;volatile
  5075                           
  5076                           ;usb_device.c: 2027: if(USBActiveConfiguration == 0)
  5077  0012D8  5029               	movf	_USBActiveConfiguration,w,c	;volatile
  5078  0012DA  A4D8               	btfss	status,2,c
  5079  0012DC  D003               	goto	i2l3129
  5080                           
  5081                           ;usb_device.c: 2028: {
  5082                           ;usb_device.c: 2030: USBDeviceState = ADDRESS_STATE;
  5083  0012DE  0E10               	movlw	16
  5084  0012E0  6E21               	movwf	_USBDeviceState,c	;volatile
  5085                           
  5086                           ;usb_device.c: 2031: }
  5087  0012E2  0012               	return	
  5088  0012E4                     i2l3129:
  5089                           
  5090                           ;usb_device.c: 2032: else
  5091                           ;usb_device.c: 2033: {
  5092                           ;usb_device.c: 2035: USER_USB_CALLBACK_EVENT_HANDLER(EVENT_CONFIGURED,(void*)&USBActiveC
      +                          onfiguration,1);
  5093  0012E4  0E00               	movlw	0
  5094  0012E6  6E39               	movwf	USER_USB_CALLBACK_EVENT_HANDLER@event+1,c
  5095  0012E8  0E01               	movlw	1
  5096  0012EA  6E38               	movwf	USER_USB_CALLBACK_EVENT_HANDLER@event,c
  5097  0012EC  0E29               	movlw	low _USBActiveConfiguration
  5098  0012EE  6E3A               	movwf	USER_USB_CALLBACK_EVENT_HANDLER@pdata,c
  5099  0012F0  0E00               	movlw	high _USBActiveConfiguration
  5100  0012F2  6E3B               	movwf	USER_USB_CALLBACK_EVENT_HANDLER@pdata+1,c
  5101  0012F4  0E00               	movlw	0
  5102  0012F6  6E3D               	movwf	USER_USB_CALLBACK_EVENT_HANDLER@size+1,c
  5103  0012F8  0E01               	movlw	1
  5104  0012FA  6E3C               	movwf	USER_USB_CALLBACK_EVENT_HANDLER@size,c
  5105  0012FC  ECE0  F00E         	call	_USER_USB_CALLBACK_EVENT_HANDLER	;wreg free
  5106                           
  5107                           ;usb_device.c: 2040: USBDeviceState = CONFIGURED_STATE;
  5108  001300  0E20               	movlw	32
  5109  001302  6E21               	movwf	_USBDeviceState,c	;volatile
  5110  001304  0012               	return	
  5111  001306                     __end_of_USBStdSetCfgHandler:
  5112                           	opt stack 0
  5113                           pclatu	equ	0xFFB
  5114                           pclath	equ	0xFFA
  5115                           tblptru	equ	0xFF8
  5116                           tblptrh	equ	0xFF7
  5117                           tblptrl	equ	0xFF6
  5118                           tablat	equ	0xFF5
  5119                           prodh	equ	0xFF4
  5120                           prodl	equ	0xFF3
  5121                           intcon	equ	0xFF2
  5122                           postinc0	equ	0xFEE
  5123                           fsr0h	equ	0xFEA
  5124                           fsr0l	equ	0xFE9
  5125                           wreg	equ	0xFE8
  5126                           indf1	equ	0xFE7
  5127                           fsr1h	equ	0xFE2
  5128                           fsr1l	equ	0xFE1
  5129                           indf2	equ	0xFDF
  5130                           postinc2	equ	0xFDE
  5131                           postdec2	equ	0xFDD
  5132                           plusw2	equ	0xFDB
  5133                           fsr2h	equ	0xFDA
  5134                           fsr2l	equ	0xFD9
  5135                           status	equ	0xFD8
  5136                           
  5137 ;; *************** function i2_memset *****************
  5138 ;; Defined at:
  5139 ;;		line 8 in file "C:\Program Files (x86)\Microchip\xc8\v1.36\sources\common\memset.c"
  5140 ;; Parameters:    Size  Location     Type
  5141 ;;  p1              2    0[COMRAM] PTR void 
  5142 ;;		 -> USBAlternateInterface(1), BDT(32), UEP1(1), 
  5143 ;;  c               2    2[COMRAM] int 
  5144 ;;  n               2    4[COMRAM] unsigned int 
  5145 ;; Auto vars:     Size  Location     Type
  5146 ;;  memset          2    6[COMRAM] PTR unsigned char 
  5147 ;;		 -> USBAlternateInterface(1), BDT(32), UEP1(1), 
  5148 ;; Return value:  Size  Location     Type
  5149 ;;                  2    0[COMRAM] PTR void 
  5150 ;; Registers used:
  5151 ;;		wreg, fsr2l, fsr2h, status,2, status,0
  5152 ;; Tracked objects:
  5153 ;;		On entry : 0/0
  5154 ;;		On exit  : 0/0
  5155 ;;		Unchanged: 0/0
  5156 ;; Data sizes:     COMRAM   BANK0   BANK1   BANK2   BANK3   BANK4   BANK5   BANK6   BANK7
  5157 ;;      Params:         6       0       0       0       0       0       0       0       0
  5158 ;;      Locals:         2       0       0       0       0       0       0       0       0
  5159 ;;      Temps:          0       0       0       0       0       0       0       0       0
  5160 ;;      Totals:         8       0       0       0       0       0       0       0       0
  5161 ;;Total ram usage:        8 bytes
  5162 ;; Hardware stack levels used:    1
  5163 ;; This function calls:
  5164 ;;		Nothing
  5165 ;; This function is called by:
  5166 ;;		_USBStdSetCfgHandler
  5167 ;;		i2_USBDeviceInit
  5168 ;; This function uses a non-reentrant model
  5169 ;;
  5170                           
  5171                           	psect	text27
  5172  0022D0                     __ptext27:
  5173                           	opt stack 0
  5174  0022D0                     i2_memset:
  5175                           	opt stack 24
  5176                           
  5177                           ;incstack = 0
  5178  0022D0  C02C  F032         	movff	i2memset@p1,i2memset@p
  5179  0022D4  C02D  F033         	movff	i2memset@p1+1,i2memset@p+1
  5180  0022D8  D008               	goto	i2l3071
  5181  0022DA                     i2l3067:
  5182  0022DA  C032  FFD9         	movff	i2memset@p,fsr2l
  5183  0022DE  C033  FFDA         	movff	i2memset@p+1,fsr2h
  5184  0022E2  C02E  FFDF         	movff	i2memset@c,indf2
  5185  0022E6  4A32               	infsnz	i2memset@p,f,c
  5186  0022E8  2A33               	incf	i2memset@p+1,f,c
  5187  0022EA                     i2l3071:
  5188  0022EA  0630               	decf	i2memset@n,f,c
  5189  0022EC  A0D8               	btfss	status,0,c
  5190  0022EE  0631               	decf	i2memset@n+1,f,c
  5191  0022F0  2830               	incf	i2memset@n,w,c
  5192  0022F2  E1F3               	bnz	i2l3067
  5193  0022F4  2831               	incf	i2memset@n+1,w,c
  5194  0022F6  B4D8               	btfsc	status,2,c
  5195  0022F8  0012               	return	
  5196  0022FA  D7EF               	goto	i2l3067
  5197  0022FC                     __end_ofi2_memset:
  5198                           	opt stack 0
  5199                           pclatu	equ	0xFFB
  5200                           pclath	equ	0xFFA
  5201                           tblptru	equ	0xFF8
  5202                           tblptrh	equ	0xFF7
  5203                           tblptrl	equ	0xFF6
  5204                           tablat	equ	0xFF5
  5205                           prodh	equ	0xFF4
  5206                           prodl	equ	0xFF3
  5207                           intcon	equ	0xFF2
  5208                           postinc0	equ	0xFEE
  5209                           fsr0h	equ	0xFEA
  5210                           fsr0l	equ	0xFE9
  5211                           wreg	equ	0xFE8
  5212                           indf1	equ	0xFE7
  5213                           fsr1h	equ	0xFE2
  5214                           fsr1l	equ	0xFE1
  5215                           indf2	equ	0xFDF
  5216                           postinc2	equ	0xFDE
  5217                           postdec2	equ	0xFDD
  5218                           plusw2	equ	0xFDB
  5219                           fsr2h	equ	0xFDA
  5220                           fsr2l	equ	0xFD9
  5221                           status	equ	0xFD8
  5222                           
  5223 ;; *************** function _USBStdGetStatusHandler *****************
  5224 ;; Defined at:
  5225 ;;		line 2147 in file "../src/master/inc/src/usb_device.c"
  5226 ;; Parameters:    Size  Location     Type
  5227 ;;		None
  5228 ;; Auto vars:     Size  Location     Type
  5229 ;;  p               2    1[COMRAM] PTR struct __BDT
  5230 ;;		 -> NULL(0), BDT(32), 
  5231 ;; Return value:  Size  Location     Type
  5232 ;;                  1    wreg      void 
  5233 ;; Registers used:
  5234 ;;		wreg, fsr2l, fsr2h, status,2, status,0, prodl, prodh
  5235 ;; Tracked objects:
  5236 ;;		On entry : 0/0
  5237 ;;		On exit  : 0/0
  5238 ;;		Unchanged: 0/0
  5239 ;; Data sizes:     COMRAM   BANK0   BANK1   BANK2   BANK3   BANK4   BANK5   BANK6   BANK7
  5240 ;;      Params:         0       0       0       0       0       0       0       0       0
  5241 ;;      Locals:         2       0       0       0       0       0       0       0       0
  5242 ;;      Temps:          1       0       0       0       0       0       0       0       0
  5243 ;;      Totals:         3       0       0       0       0       0       0       0       0
  5244 ;;Total ram usage:        3 bytes
  5245 ;; Hardware stack levels used:    1
  5246 ;; This function calls:
  5247 ;;		Nothing
  5248 ;; This function is called by:
  5249 ;;		_USBCheckStdRequest
  5250 ;; This function uses a non-reentrant model
  5251 ;;
  5252                           
  5253                           	psect	text28
  5254  001964                     __ptext28:
  5255                           	opt stack 0
  5256  001964                     _USBStdGetStatusHandler:
  5257                           	opt stack 22
  5258                           
  5259                           ;usb_device.c: 2149: CtrlTrfData[0] = 0;
  5260                           
  5261                           ;incstack = 0
  5262  001964  0E00               	movlw	0
  5263  001966  0104               	movlb	4	; () banked
  5264  001968  6F28               	movwf	40,b	;volatile
  5265                           
  5266                           ;usb_device.c: 2150: CtrlTrfData[1] = 0;
  5267  00196A  0E00               	movlw	0
  5268  00196C  0104               	movlb	4	; () banked
  5269  00196E  6F29               	movwf	41,b	;volatile
  5270                           
  5271                           ;usb_device.c: 2152: switch(SetupPkt.Recipient)
  5272  001970  D038               	goto	i2l3185
  5273  001972                     i2l392:
  5274                           
  5275                           ; BSR set to: 4
  5276                           ;usb_device.c: 2155: inPipes[0].info.bits.busy = 1;
  5277  001972  8E0C               	bsf	_inPipes+3,7,c	;volatile
  5278                           
  5279                           ; BSR set to: 4
  5280                           ;usb_device.c: 2163: }
  5281                           ;usb_device.c: 2165: if(RemoteWakeup == 1)
  5282                           
  5283                           ; BSR set to: 4
  5284                           
  5285                           ; BSR set to: 4
  5286                           ;usb_device.c: 2161: {
  5287                           ;usb_device.c: 2162: CtrlTrfData[0]|=0x01;
  5288                           
  5289                           ;usb_device.c: 2160: if(0 == 1)
  5290  001974  041C               	decf	_RemoteWakeup,w,c	;volatile
  5291  001976  A4D8               	btfss	status,2,c
  5292  001978  D040               	goto	i2l395
  5293                           
  5294                           ; BSR set to: 4
  5295                           ;usb_device.c: 2166: {
  5296                           ;usb_device.c: 2167: CtrlTrfData[0]|=0x02;
  5297  00197A  0104               	movlb	4	; () banked
  5298  00197C  8328               	bsf	40,1,b	;volatile
  5299                           
  5300                           ; BSR set to: 4
  5301                           ;usb_device.c: 2168: }
  5302                           ;usb_device.c: 2169: break;
  5303  00197E  D03D               	goto	i2l395
  5304  001980                     i2l396:
  5305                           
  5306                           ; BSR set to: 4
  5307                           ;usb_device.c: 2171: inPipes[0].info.bits.busy = 1;
  5308  001980  8E0C               	bsf	_inPipes+3,7,c	;volatile
  5309                           
  5310                           ;usb_device.c: 2172: break;
  5311  001982  D03B               	goto	i2l395
  5312  001984                     i2l397:
  5313                           
  5314                           ; BSR set to: 4
  5315                           ;usb_device.c: 2174: inPipes[0].info.bits.busy = 1;
  5316  001984  8E0C               	bsf	_inPipes+3,7,c	;volatile
  5317                           
  5318                           ;usb_device.c: 2178: {
  5319                           ;usb_device.c: 2179: BDT_ENTRY *p;
  5320                           ;usb_device.c: 2181: if(SetupPkt.EPDir == 0)
  5321  001986  0104               	movlb	4	; () banked
  5322  001988  BF24               	btfsc	36,7,b	;volatile
  5323  00198A  D00B               	goto	i2l3175
  5324                           
  5325                           ; BSR set to: 4
  5326                           ;usb_device.c: 2182: {
  5327                           ;usb_device.c: 2183: p = (BDT_ENTRY*)pBDTEntryOut[SetupPkt.EPNum];
  5328  00198C  0104               	movlb	4	; () banked
  5329  00198E  5124               	movf	36,w,b	;volatile
  5330  001990  0B0F               	andlw	15
  5331  001992  6E2C               	movwf	??_USBStdGetStatusHandler& (0+255),c
  5332  001994  502C               	movf	??_USBStdGetStatusHandler,w,c
  5333  001996  0D02               	mullw	2
  5334  001998  0E64               	movlw	low _pBDTEntryOut
  5335  00199A  24F3               	addwf	prodl,w,c
  5336  00199C  6ED9               	movwf	fsr2l,c
  5337  00199E  0E00               	movlw	high _pBDTEntryOut
  5338  0019A0  D00A               	goto	L4
  5339  0019A2                     i2l3175:
  5340                           
  5341                           ; BSR set to: 4
  5342                           ;usb_device.c: 2185: else
  5343                           ;usb_device.c: 2186: {
  5344                           ;usb_device.c: 2187: p = (BDT_ENTRY*)pBDTEntryIn[SetupPkt.EPNum];
  5345  0019A2  0104               	movlb	4	; () banked
  5346  0019A4  5124               	movf	36,w,b	;volatile
  5347  0019A6  0B0F               	andlw	15
  5348  0019A8  6E2C               	movwf	??_USBStdGetStatusHandler& (0+255),c
  5349  0019AA  502C               	movf	??_USBStdGetStatusHandler,w,c
  5350  0019AC  0D02               	mullw	2
  5351  0019AE  0E0F               	movlw	low _pBDTEntryIn
  5352  0019B0  24F3               	addwf	prodl,w,c
  5353  0019B2  6ED9               	movwf	fsr2l,c
  5354  0019B4  0E00               	movlw	high _pBDTEntryIn
  5355  0019B6                     L4:
  5356  0019B6  20F4               	addwfc	prodh,w,c
  5357  0019B8  6EDA               	movwf	fsr2h,c
  5358  0019BA  CFDE F02D          	movff	postinc2,USBStdGetStatusHandler@p
  5359  0019BE  CFDD F02E          	movff	postdec2,USBStdGetStatusHandler@p+1
  5360                           
  5361                           ; BSR set to: 4
  5362                           ;usb_device.c: 2188: }
  5363                           ;usb_device.c: 2190: if((p->STAT.UOWN == 1) && (p->STAT.BSTALL == 1))
  5364                           
  5365                           ; BSR set to: 4
  5366  0019C2  C02D  FFD9         	movff	USBStdGetStatusHandler@p,fsr2l
  5367  0019C6  C02E  FFDA         	movff	USBStdGetStatusHandler@p+1,fsr2h
  5368  0019CA  AEDF               	btfss	indf2,7,c
  5369  0019CC  D016               	goto	i2l395
  5370                           
  5371                           ; BSR set to: 4
  5372  0019CE  C02D  FFD9         	movff	USBStdGetStatusHandler@p,fsr2l
  5373  0019D2  C02E  FFDA         	movff	USBStdGetStatusHandler@p+1,fsr2h
  5374  0019D6  A4DF               	btfss	indf2,2,c
  5375  0019D8  D010               	goto	i2l395
  5376                           
  5377                           ; BSR set to: 4
  5378                           ;usb_device.c: 2191: CtrlTrfData[0]=0x01;
  5379  0019DA  0E01               	movlw	1
  5380  0019DC  0104               	movlb	4	; () banked
  5381  0019DE  6F28               	movwf	40,b	;volatile
  5382                           
  5383                           ; BSR set to: 4
  5384                           ;usb_device.c: 2193: }
  5385                           ;usb_device.c: 2194: }
  5386                           
  5387                           ; BSR set to: 4
  5388                           ;usb_device.c: 2192: break;
  5389  0019E0  D00C               	goto	i2l395
  5390  0019E2                     i2l3185:
  5391                           
  5392                           ; BSR set to: 4
  5393  0019E2  0104               	movlb	4	; () banked
  5394  0019E4  5120               	movf	32,w,b	;volatile
  5395  0019E6  0B1F               	andlw	31
  5396                           
  5397                           ; Switch size 1, requested type "space"
  5398                           ; Number of cases is 3, Range of values is 0 to 2
  5399                           ; switch strategies available:
  5400                           ; Name         Instructions Cycles
  5401                           ; simple_byte           10     6 (average)
  5402                           ;	Chosen strategy is simple_byte
  5403  0019E8  0A00               	xorlw	0	; case 0
  5404  0019EA  B4D8               	btfsc	status,2,c
  5405  0019EC  D7C2               	goto	i2l392
  5406  0019EE  0A01               	xorlw	1	; case 1
  5407  0019F0  B4D8               	btfsc	status,2,c
  5408  0019F2  D7C6               	goto	i2l396
  5409  0019F4  0A03               	xorlw	3	; case 2
  5410  0019F6  B4D8               	btfsc	status,2,c
  5411  0019F8  D7C5               	goto	i2l397
  5412  0019FA                     i2l395:
  5413                           
  5414                           ; BSR set to: 4
  5415                           ;usb_device.c: 2196: if(inPipes[0].info.bits.busy == 1)
  5416  0019FA  AE0C               	btfss	_inPipes+3,7,c	;volatile
  5417  0019FC  0012               	return	
  5418                           
  5419                           ; BSR set to: 4
  5420                           ;usb_device.c: 2197: {
  5421                           ;usb_device.c: 2198: inPipes[0].pSrc.bRam = (uint8_t*)&CtrlTrfData;
  5422  0019FE  0E28               	movlw	40
  5423  001A00  6E09               	movwf	_inPipes,c	;volatile
  5424  001A02  0E04               	movlw	4
  5425  001A04  6E0A               	movwf	_inPipes+1,c	;volatile
  5426                           
  5427                           ; BSR set to: 4
  5428                           ;usb_device.c: 2199: inPipes[0].info.bits.ctrl_trf_mem = 0x01;
  5429  001A06  800C               	bsf	_inPipes+3,0,c	;volatile
  5430                           
  5431                           ; BSR set to: 4
  5432                           ;usb_device.c: 2200: inPipes[0].wCount.v[0] = 2;
  5433  001A08  0E02               	movlw	2
  5434  001A0A  6E0D               	movwf	_inPipes+4,c	;volatile
  5435  001A0C  0012               	return	
  5436  001A0E                     __end_of_USBStdGetStatusHandler:
  5437                           	opt stack 0
  5438                           pclatu	equ	0xFFB
  5439                           pclath	equ	0xFFA
  5440                           tblptru	equ	0xFF8
  5441                           tblptrh	equ	0xFF7
  5442                           tblptrl	equ	0xFF6
  5443                           tablat	equ	0xFF5
  5444                           prodh	equ	0xFF4
  5445                           prodl	equ	0xFF3
  5446                           intcon	equ	0xFF2
  5447                           postinc0	equ	0xFEE
  5448                           fsr0h	equ	0xFEA
  5449                           fsr0l	equ	0xFE9
  5450                           wreg	equ	0xFE8
  5451                           indf1	equ	0xFE7
  5452                           fsr1h	equ	0xFE2
  5453                           fsr1l	equ	0xFE1
  5454                           indf2	equ	0xFDF
  5455                           postinc2	equ	0xFDE
  5456                           postdec2	equ	0xFDD
  5457                           plusw2	equ	0xFDB
  5458                           fsr2h	equ	0xFDA
  5459                           fsr2l	equ	0xFD9
  5460                           status	equ	0xFD8
  5461                           
  5462 ;; *************** function _USBStdGetDscHandler *****************
  5463 ;; Defined at:
  5464 ;;		line 2061 in file "../src/master/inc/src/usb_device.c"
  5465 ;; Parameters:    Size  Location     Type
  5466 ;;		None
  5467 ;; Auto vars:     Size  Location     Type
  5468 ;;		None
  5469 ;; Return value:  Size  Location     Type
  5470 ;;                  1    wreg      void 
  5471 ;; Registers used:
  5472 ;;		wreg, fsr0l, fsr0h, status,2, status,0, tblptrl, tblptrh, tblptru, prodl, prodh
  5473 ;; Tracked objects:
  5474 ;;		On entry : 0/0
  5475 ;;		On exit  : 0/0
  5476 ;;		Unchanged: 0/0
  5477 ;; Data sizes:     COMRAM   BANK0   BANK1   BANK2   BANK3   BANK4   BANK5   BANK6   BANK7
  5478 ;;      Params:         0       0       0       0       0       0       0       0       0
  5479 ;;      Locals:         0       0       0       0       0       0       0       0       0
  5480 ;;      Temps:          2       0       0       0       0       0       0       0       0
  5481 ;;      Totals:         2       0       0       0       0       0       0       0       0
  5482 ;;Total ram usage:        2 bytes
  5483 ;; Hardware stack levels used:    1
  5484 ;; This function calls:
  5485 ;;		Nothing
  5486 ;; This function is called by:
  5487 ;;		_USBCheckStdRequest
  5488 ;; This function uses a non-reentrant model
  5489 ;;
  5490                           
  5491                           	psect	text29
  5492  000F0E                     __ptext29:
  5493                           	opt stack 0
  5494  000F0E                     _USBStdGetDscHandler:
  5495                           	opt stack 22
  5496                           
  5497                           ;usb_device.c: 2063: if(SetupPkt.bmRequestType == 0x80)
  5498                           
  5499                           ; BSR set to: 4
  5500                           ;incstack = 0
  5501  000F0E  0E80               	movlw	128
  5502  000F10  0104               	movlb	4	; () banked
  5503  000F12  1920               	xorwf	32,w,b	;volatile
  5504  000F14  A4D8               	btfss	status,2,c
  5505  000F16  0012               	return	
  5506                           
  5507                           ; BSR set to: 4
  5508                           ;usb_device.c: 2064: {
  5509                           ;usb_device.c: 2065: inPipes[0].info.Val = 0x00 | 0x80 | 0x40;
  5510  000F18  0EC0               	movlw	192
  5511  000F1A  6E0C               	movwf	_inPipes+3,c	;volatile
  5512                           
  5513                           ;usb_device.c: 2067: switch(SetupPkt.bDescriptorType)
  5514  000F1C  D07C               	goto	i2l3163
  5515  000F1E                     i2l3137:
  5516                           
  5517                           ; BSR set to: 4
  5518                           ;usb_device.c: 2073: inPipes[0].pSrc.bRom = (const uint8_t*)&device_dsc;
  5519  000F1E  0EB1               	movlw	low _device_dsc
  5520  000F20  6E09               	movwf	_inPipes,c	;volatile
  5521  000F22  0E08               	movlw	high _device_dsc
  5522  000F24  6E0A               	movwf	_inPipes+1,c	;volatile
  5523                           
  5524                           ; BSR set to: 4
  5525                           ;usb_device.c: 2075: inPipes[0].wCount.Val = sizeof(device_dsc);
  5526  000F26  0E00               	movlw	0
  5527  000F28  6E0E               	movwf	_inPipes+5,c	;volatile
  5528  000F2A  0E12               	movlw	18
  5529  000F2C  6E0D               	movwf	_inPipes+4,c	;volatile
  5530                           
  5531                           ;usb_device.c: 2076: break;
  5532  000F2E  0012               	return	
  5533  000F30                     i2l3141:
  5534                           
  5535                           ; BSR set to: 4
  5536                           ;usb_device.c: 2081: if(SetupPkt.bDscIndex < 1)
  5537  000F30  0104               	movlb	4	; () banked
  5538  000F32  5122               	movf	34,w,b	;volatile
  5539  000F34  A4D8               	btfss	status,2,c
  5540  000F36  D03E               	goto	i2l3149
  5541                           
  5542                           ; BSR set to: 4
  5543                           ;usb_device.c: 2082: {
  5544                           ;usb_device.c: 2086: inPipes[0].pSrc.bRom = *(USB_CD_Ptr+SetupPkt.bDscIndex);
  5545  000F38  0104               	movlb	4	; () banked
  5546  000F3A  5122               	movf	34,w,b	;volatile
  5547  000F3C  0D02               	mullw	2
  5548  000F3E  0E07               	movlw	low _USB_CD_Ptr
  5549  000F40  24F3               	addwf	prodl,w,c
  5550  000F42  6EF6               	movwf	tblptrl,c
  5551  000F44  0E08               	movlw	high _USB_CD_Ptr
  5552  000F46  20F4               	addwfc	prodh,w,c
  5553  000F48  6EF7               	movwf	tblptrh,c
  5554  000F4A                     	if	0	;There are less than 3 active tblptr bytes
  5555  000F4A                     	endif
  5556  000F4A  0009               	tblrd		*+
  5557  000F4C  CFF5 F009          	movff	tablat,_inPipes	;volatile
  5558  000F50  000A               	tblrd		*-
  5559  000F52  CFF5 F00A          	movff	tablat,_inPipes+1	;volatile
  5560                           
  5561                           ; BSR set to: 4
  5562                           ;usb_device.c: 2092: inPipes[0].wCount.byte.LB = *(inPipes[0].pSrc.bRom+2);
  5563  000F56  0E02               	movlw	2
  5564  000F58  2409               	addwf	_inPipes,w,c	;volatile
  5565  000F5A  6E2C               	movwf	??_USBStdGetDscHandler& (0+255),c
  5566  000F5C  0E00               	movlw	0
  5567  000F5E  200A               	addwfc	_inPipes+1,w,c	;volatile
  5568  000F60  6E2D               	movwf	(??_USBStdGetDscHandler+1)& (0+255),c
  5569  000F62  C02C  FFF6         	movff	??_USBStdGetDscHandler,tblptrl
  5570  000F66  C02D  FFF7         	movff	??_USBStdGetDscHandler+1,tblptrh
  5571  000F6A  6AF8               	clrf	tblptru,c
  5572  000F6C  0E07               	movlw	(high __ramtop+-1)
  5573  000F6E  64F7               	cpfsgt	tblptrh,c
  5574  000F70  D003               	bra	i2u182_47
  5575  000F72  0008               	tblrd		*
  5576  000F74  50F5               	movf	tablat,w,c
  5577  000F76  D005               	bra	i2u182_40
  5578  000F78                     i2u182_47:
  5579  000F78  CFF6 FFE9          	movff	tblptrl,fsr0l
  5580  000F7C  CFF7 FFEA          	movff	tblptrh,fsr0h
  5581  000F80  50EF               	movf	indf0,w,c
  5582  000F82                     i2u182_40:
  5583  000F82  6E0D               	movwf	_inPipes+4,c	;volatile
  5584                           
  5585                           ;usb_device.c: 2093: inPipes[0].wCount.byte.HB = *(inPipes[0].pSrc.bRom+3);
  5586  000F84  0E03               	movlw	3
  5587  000F86  2409               	addwf	_inPipes,w,c	;volatile
  5588  000F88  6E2C               	movwf	??_USBStdGetDscHandler& (0+255),c
  5589  000F8A  0E00               	movlw	0
  5590  000F8C  200A               	addwfc	_inPipes+1,w,c	;volatile
  5591  000F8E  6E2D               	movwf	(??_USBStdGetDscHandler+1)& (0+255),c
  5592  000F90  C02C  FFF6         	movff	??_USBStdGetDscHandler,tblptrl
  5593  000F94  C02D  FFF7         	movff	??_USBStdGetDscHandler+1,tblptrh
  5594  000F98  6AF8               	clrf	tblptru,c
  5595  000F9A  0E07               	movlw	(high __ramtop+-1)
  5596  000F9C  64F7               	cpfsgt	tblptrh,c
  5597  000F9E  D003               	bra	i2u183_47
  5598  000FA0  0008               	tblrd		*
  5599  000FA2  50F5               	movf	tablat,w,c
  5600  000FA4  D005               	bra	i2u183_40
  5601  000FA6                     i2u183_47:
  5602  000FA6  CFF6 FFE9          	movff	tblptrl,fsr0l
  5603  000FAA  CFF7 FFEA          	movff	tblptrh,fsr0h
  5604  000FAE  50EF               	movf	indf0,w,c
  5605  000FB0                     i2u183_40:
  5606  000FB0  6E0E               	movwf	_inPipes+5,c	;volatile
  5607                           
  5608                           ;usb_device.c: 2094: }
  5609  000FB2  0012               	return	
  5610  000FB4                     i2l3149:
  5611                           
  5612                           ;usb_device.c: 2095: else
  5613                           ;usb_device.c: 2096: {
  5614                           ;usb_device.c: 2097: inPipes[0].info.Val = 0;
  5615  000FB4  0E00               	movlw	0
  5616  000FB6  6E0C               	movwf	_inPipes+3,c	;volatile
  5617                           
  5618                           ;usb_device.c: 2098: }
  5619                           ;usb_device.c: 2099: break;
  5620  000FB8  0012               	return	
  5621  000FBA                     i2l3151:
  5622                           
  5623                           ;usb_device.c: 2104: if(SetupPkt.bDscIndex<3)
  5624  000FBA  0E03               	movlw	3
  5625  000FBC  0104               	movlb	4	; () banked
  5626  000FBE  6122               	cpfslt	34,b	;volatile
  5627  000FC0  D024               	goto	i2l3157
  5628                           
  5629                           ; BSR set to: 4
  5630                           ;usb_device.c: 2105: {
  5631                           ;usb_device.c: 2107: inPipes[0].pSrc.bRom = *(USB_SD_Ptr+SetupPkt.bDscIndex);
  5632  000FC2  0104               	movlb	4	; () banked
  5633  000FC4  5122               	movf	34,w,b	;volatile
  5634  000FC6  0D02               	mullw	2
  5635  000FC8  0E01               	movlw	low _USB_SD_Ptr
  5636  000FCA  24F3               	addwf	prodl,w,c
  5637  000FCC  6EF6               	movwf	tblptrl,c
  5638  000FCE  0E08               	movlw	high _USB_SD_Ptr
  5639  000FD0  20F4               	addwfc	prodh,w,c
  5640  000FD2  6EF7               	movwf	tblptrh,c
  5641  000FD4                     	if	0	;There are less than 3 active tblptr bytes
  5642  000FD4                     	endif
  5643  000FD4  0009               	tblrd		*+
  5644  000FD6  CFF5 F009          	movff	tablat,_inPipes	;volatile
  5645  000FDA  000A               	tblrd		*-
  5646  000FDC  CFF5 F00A          	movff	tablat,_inPipes+1	;volatile
  5647                           
  5648                           ; BSR set to: 4
  5649                           ;usb_device.c: 2109: inPipes[0].wCount.Val = *inPipes[0].pSrc.bRom;
  5650  000FE0  C009  FFF6         	movff	_inPipes,tblptrl	;volatile
  5651  000FE4  C00A  FFF7         	movff	_inPipes+1,tblptrh	;volatile
  5652  000FE8  6AF8               	clrf	tblptru,c
  5653  000FEA  0E07               	movlw	(high __ramtop+-1)
  5654  000FEC  64F7               	cpfsgt	tblptrh,c
  5655  000FEE  D003               	bra	i2u185_47
  5656  000FF0  0008               	tblrd		*
  5657  000FF2  50F5               	movf	tablat,w,c
  5658  000FF4  D005               	bra	i2u185_40
  5659  000FF6                     i2u185_47:
  5660  000FF6  CFF6 FFE9          	movff	tblptrl,fsr0l
  5661  000FFA  CFF7 FFEA          	movff	tblptrh,fsr0h
  5662  000FFE  50EF               	movf	indf0,w,c
  5663  001000                     i2u185_40:
  5664  001000  6E2C               	movwf	??_USBStdGetDscHandler& (0+255),c
  5665  001002  502C               	movf	??_USBStdGetDscHandler,w,c
  5666  001004  6E0D               	movwf	_inPipes+4,c	;volatile
  5667  001006  6A0E               	clrf	_inPipes+5,c	;volatile
  5668                           
  5669                           ;usb_device.c: 2110: }
  5670  001008  0012               	return	
  5671  00100A                     i2l3157:
  5672                           
  5673                           ;usb_device.c: 2120: else
  5674                           ;usb_device.c: 2121: {
  5675                           ;usb_device.c: 2122: inPipes[0].info.Val = 0;
  5676  00100A  0E00               	movlw	0
  5677  00100C  6E0C               	movwf	_inPipes+3,c	;volatile
  5678                           
  5679                           ;usb_device.c: 2123: }
  5680                           ;usb_device.c: 2124: break;
  5681  00100E  0012               	return	
  5682  001010                     i2l3159:
  5683                           
  5684                           ;usb_device.c: 2126: inPipes[0].info.Val = 0;
  5685  001010  0E00               	movlw	0
  5686  001012  6E0C               	movwf	_inPipes+3,c	;volatile
  5687                           
  5688                           ;usb_device.c: 2128: }
  5689                           
  5690                           ;usb_device.c: 2127: break;
  5691  001014  0012               	return	
  5692  001016                     i2l3163:
  5693  001016  0104               	movlb	4	; () banked
  5694  001018  5123               	movf	35,w,b	;volatile
  5695                           
  5696                           ; Switch size 1, requested type "space"
  5697                           ; Number of cases is 3, Range of values is 1 to 3
  5698                           ; switch strategies available:
  5699                           ; Name         Instructions Cycles
  5700                           ; simple_byte           10     6 (average)
  5701                           ;	Chosen strategy is simple_byte
  5702  00101A  0A01               	xorlw	1	; case 1
  5703  00101C  B4D8               	btfsc	status,2,c
  5704  00101E  D77F               	goto	i2l3137
  5705  001020  0A03               	xorlw	3	; case 2
  5706  001022  B4D8               	btfsc	status,2,c
  5707  001024  D785               	goto	i2l3141
  5708  001026  0A01               	xorlw	1	; case 3
  5709  001028  B4D8               	btfsc	status,2,c
  5710  00102A  D7C7               	goto	i2l3151
  5711  00102C  D7F1               	goto	i2l3159
  5712  00102E                     __end_of_USBStdGetDscHandler:
  5713                           	opt stack 0
  5714                           pclatu	equ	0xFFB
  5715                           pclath	equ	0xFFA
  5716                           tblptru	equ	0xFF8
  5717                           tblptrh	equ	0xFF7
  5718                           tblptrl	equ	0xFF6
  5719                           tablat	equ	0xFF5
  5720                           prodh	equ	0xFF4
  5721                           prodl	equ	0xFF3
  5722                           intcon	equ	0xFF2
  5723                           indf0	equ	0xFEF
  5724                           postinc0	equ	0xFEE
  5725                           fsr0h	equ	0xFEA
  5726                           fsr0l	equ	0xFE9
  5727                           wreg	equ	0xFE8
  5728                           indf1	equ	0xFE7
  5729                           fsr1h	equ	0xFE2
  5730                           fsr1l	equ	0xFE1
  5731                           indf2	equ	0xFDF
  5732                           postinc2	equ	0xFDE
  5733                           postdec2	equ	0xFDD
  5734                           plusw2	equ	0xFDB
  5735                           fsr2h	equ	0xFDA
  5736                           fsr2l	equ	0xFD9
  5737                           status	equ	0xFD8
  5738                           
  5739 ;; *************** function _USBStdFeatureReqHandler *****************
  5740 ;; Defined at:
  5741 ;;		line 2771 in file "../src/master/inc/src/usb_device.c"
  5742 ;; Parameters:    Size  Location     Type
  5743 ;;		None
  5744 ;; Auto vars:     Size  Location     Type
  5745 ;;  p               2   24[COMRAM] PTR struct __BDT
  5746 ;;		 -> NULL(0), BDT(32), 
  5747 ;;  pUEP            2   21[COMRAM] PTR unsigned char 
  5748 ;;		 -> UEP0(1), 
  5749 ;;  current_ep_d    1   23[COMRAM] struct .
  5750 ;; Return value:  Size  Location     Type
  5751 ;;                  1    wreg      void 
  5752 ;; Registers used:
  5753 ;;		wreg, fsr2l, fsr2h, status,2, status,0, prodl, prodh, cstack
  5754 ;; Tracked objects:
  5755 ;;		On entry : 0/0
  5756 ;;		On exit  : 0/0
  5757 ;;		Unchanged: 0/0
  5758 ;; Data sizes:     COMRAM   BANK0   BANK1   BANK2   BANK3   BANK4   BANK5   BANK6   BANK7
  5759 ;;      Params:         0       0       0       0       0       0       0       0       0
  5760 ;;      Locals:         5       0       0       0       0       0       0       0       0
  5761 ;;      Temps:          1       0       0       0       0       0       0       0       0
  5762 ;;      Totals:         6       0       0       0       0       0       0       0       0
  5763 ;;Total ram usage:        6 bytes
  5764 ;; Hardware stack levels used:    1
  5765 ;; Hardware stack levels required when called:    4
  5766 ;; This function calls:
  5767 ;;		_USER_USB_CALLBACK_EVENT_HANDLER
  5768 ;; This function is called by:
  5769 ;;		_USBCheckStdRequest
  5770 ;; This function uses a non-reentrant model
  5771 ;;
  5772                           
  5773                           	psect	text30
  5774  0008C8                     __ptext30:
  5775                           	opt stack 0
  5776  0008C8                     _USBStdFeatureReqHandler:
  5777                           	opt stack 18
  5778                           
  5779                           ;usb_device.c: 2773: BDT_ENTRY *p;
  5780                           ;usb_device.c: 2774: EP_STATUS current_ep_data;
  5781                           ;usb_device.c: 2778: unsigned char* pUEP;
  5782                           ;usb_device.c: 2816: if((SetupPkt.bFeature == 1)&&
  5783                           ;usb_device.c: 2817: (SetupPkt.Recipient == (0x00)))
  5784                           
  5785                           ;incstack = 0
  5786  0008C8  0104               	movlb	4	; () banked
  5787  0008CA  0522               	decf	34,w,b	;volatile
  5788  0008CC  A4D8               	btfss	status,2,c
  5789  0008CE  D010               	goto	i2l469
  5790                           
  5791                           ; BSR set to: 4
  5792  0008D0  0104               	movlb	4	; () banked
  5793  0008D2  5120               	movf	32,w,b	;volatile
  5794  0008D4  0B1F               	andlw	31
  5795  0008D6  0900               	iorlw	0
  5796  0008D8  A4D8               	btfss	status,2,c
  5797  0008DA  D00A               	goto	i2l469
  5798                           
  5799                           ; BSR set to: 4
  5800                           ;usb_device.c: 2818: {
  5801                           ;usb_device.c: 2819: inPipes[0].info.bits.busy = 1;
  5802  0008DC  8E0C               	bsf	_inPipes+3,7,c	;volatile
  5803                           
  5804                           ; BSR set to: 4
  5805                           ;usb_device.c: 2820: if(SetupPkt.bRequest == 3)
  5806  0008DE  0E03               	movlw	3
  5807  0008E0  0104               	movlb	4	; () banked
  5808  0008E2  1921               	xorwf	33,w,b	;volatile
  5809  0008E4  A4D8               	btfss	status,2,c
  5810  0008E6  D002               	goto	i2l3203
  5811                           
  5812                           ; BSR set to: 4
  5813                           ;usb_device.c: 2821: RemoteWakeup = 1;
  5814  0008E8  0E01               	movlw	1
  5815  0008EA  D001               	goto	L5
  5816  0008EC                     i2l3203:
  5817                           
  5818                           ; BSR set to: 4
  5819                           ;usb_device.c: 2822: else
  5820                           ;usb_device.c: 2823: RemoteWakeup = 0;
  5821  0008EC  0E00               	movlw	0
  5822  0008EE                     L5:
  5823  0008EE  6E1C               	movwf	_RemoteWakeup,c	;volatile
  5824  0008F0                     i2l469:
  5825                           
  5826                           ; BSR set to: 4
  5827                           ;usb_device.c: 2824: }
  5828                           ;usb_device.c: 2827: if((SetupPkt.bFeature == 0)&&
  5829                           ;usb_device.c: 2828: (SetupPkt.Recipient == (0x02))&&
  5830                           ;usb_device.c: 2829: (SetupPkt.EPNum != 0) && (SetupPkt.EPNum <= 1)&&
  5831                           ;usb_device.c: 2830: (USBDeviceState == CONFIGURED_STATE))
  5832  0008F0  0104               	movlb	4	; () banked
  5833  0008F2  5122               	movf	34,w,b	;volatile
  5834  0008F4  A4D8               	btfss	status,2,c
  5835  0008F6  0012               	return	
  5836                           
  5837                           ; BSR set to: 4
  5838  0008F8  0104               	movlb	4	; () banked
  5839  0008FA  5120               	movf	32,w,b	;volatile
  5840  0008FC  0B1F               	andlw	31
  5841  0008FE  0A02               	xorlw	2
  5842  000900  A4D8               	btfss	status,2,c
  5843  000902  0012               	return	
  5844                           
  5845                           ; BSR set to: 4
  5846  000904  0104               	movlb	4	; () banked
  5847  000906  5124               	movf	36,w,b	;volatile
  5848  000908  0B0F               	andlw	15
  5849  00090A  0900               	iorlw	0
  5850  00090C  B4D8               	btfsc	status,2,c
  5851  00090E  0012               	return	
  5852                           
  5853                           ; BSR set to: 4
  5854  000910  0104               	movlb	4	; () banked
  5855  000912  5124               	movf	36,w,b	;volatile
  5856  000914  0B0F               	andlw	15
  5857  000916  6E40               	movwf	??_USBStdFeatureReqHandler& (0+255),c
  5858  000918  0E02               	movlw	2
  5859  00091A  6040               	cpfslt	??_USBStdFeatureReqHandler,c
  5860  00091C  0012               	return	
  5861                           
  5862                           ; BSR set to: 4
  5863  00091E  0E20               	movlw	32
  5864  000920  1821               	xorwf	_USBDeviceState,w,c	;volatile
  5865  000922  A4D8               	btfss	status,2,c
  5866  000924  0012               	return	
  5867                           
  5868                           ; BSR set to: 4
  5869                           ;usb_device.c: 2831: {
  5870                           ;usb_device.c: 2834: inPipes[0].info.bits.busy = 1;
  5871  000926  8E0C               	bsf	_inPipes+3,7,c	;volatile
  5872                           
  5873                           ;usb_device.c: 2837: if(SetupPkt.EPDir == 0)
  5874  000928  0104               	movlb	4	; () banked
  5875  00092A  BF24               	btfsc	36,7,b	;volatile
  5876  00092C  D01B               	goto	i2l3217
  5877                           
  5878                           ; BSR set to: 4
  5879                           ;usb_device.c: 2838: {
  5880                           ;usb_device.c: 2839: p = (BDT_ENTRY*)pBDTEntryOut[SetupPkt.EPNum];
  5881  00092E  0104               	movlb	4	; () banked
  5882  000930  5124               	movf	36,w,b	;volatile
  5883  000932  0B0F               	andlw	15
  5884  000934  6E40               	movwf	??_USBStdFeatureReqHandler& (0+255),c
  5885  000936  5040               	movf	??_USBStdFeatureReqHandler,w,c
  5886  000938  0D02               	mullw	2
  5887  00093A  0E64               	movlw	low _pBDTEntryOut
  5888  00093C  24F3               	addwf	prodl,w,c
  5889  00093E  6ED9               	movwf	fsr2l,c
  5890  000940  0E00               	movlw	high _pBDTEntryOut
  5891  000942  20F4               	addwfc	prodh,w,c
  5892  000944  6EDA               	movwf	fsr2h,c
  5893  000946  CFDE F044          	movff	postinc2,USBStdFeatureReqHandler@p
  5894  00094A  CFDD F045          	movff	postdec2,USBStdFeatureReqHandler@p+1
  5895                           
  5896                           ;usb_device.c: 2840: current_ep_data.Val = ep_data_out[SetupPkt.EPNum].Val;
  5897  00094E  0104               	movlb	4	; () banked
  5898  000950  5124               	movf	36,w,b	;volatile
  5899  000952  0B0F               	andlw	15
  5900  000954  6E40               	movwf	??_USBStdFeatureReqHandler& (0+255),c
  5901  000956  5040               	movf	??_USBStdFeatureReqHandler,w,c
  5902  000958  0D01               	mullw	1
  5903  00095A  0E15               	movlw	low _ep_data_out
  5904  00095C  24F3               	addwf	prodl,w,c
  5905  00095E  6ED9               	movwf	fsr2l,c
  5906  000960  0E00               	movlw	high _ep_data_out
  5907  000962  D01A               	goto	L6
  5908  000964                     i2l3217:
  5909                           
  5910                           ; BSR set to: 4
  5911                           ;usb_device.c: 2842: else
  5912                           ;usb_device.c: 2843: {
  5913                           ;usb_device.c: 2844: p = (BDT_ENTRY*)pBDTEntryIn[SetupPkt.EPNum];
  5914  000964  0104               	movlb	4	; () banked
  5915  000966  5124               	movf	36,w,b	;volatile
  5916  000968  0B0F               	andlw	15
  5917  00096A  6E40               	movwf	??_USBStdFeatureReqHandler& (0+255),c
  5918  00096C  5040               	movf	??_USBStdFeatureReqHandler,w,c
  5919  00096E  0D02               	mullw	2
  5920  000970  0E0F               	movlw	low _pBDTEntryIn
  5921  000972  24F3               	addwf	prodl,w,c
  5922  000974  6ED9               	movwf	fsr2l,c
  5923  000976  0E00               	movlw	high _pBDTEntryIn
  5924  000978  20F4               	addwfc	prodh,w,c
  5925  00097A  6EDA               	movwf	fsr2h,c
  5926  00097C  CFDE F044          	movff	postinc2,USBStdFeatureReqHandler@p
  5927  000980  CFDD F045          	movff	postdec2,USBStdFeatureReqHandler@p+1
  5928                           
  5929                           ;usb_device.c: 2845: current_ep_data.Val = ep_data_in[SetupPkt.EPNum].Val;
  5930  000984  0104               	movlb	4	; () banked
  5931  000986  5124               	movf	36,w,b	;volatile
  5932  000988  0B0F               	andlw	15
  5933  00098A  6E40               	movwf	??_USBStdFeatureReqHandler& (0+255),c
  5934  00098C  5040               	movf	??_USBStdFeatureReqHandler,w,c
  5935  00098E  0D01               	mullw	1
  5936  000990  0E13               	movlw	low _ep_data_in
  5937  000992  24F3               	addwf	prodl,w,c
  5938  000994  6ED9               	movwf	fsr2l,c
  5939  000996  0E00               	movlw	high _ep_data_in
  5940  000998                     L6:
  5941  000998  20F4               	addwfc	prodh,w,c
  5942  00099A  6EDA               	movwf	fsr2h,c
  5943  00099C  50DF               	movf	indf2,w,c
  5944  00099E  6E43               	movwf	USBStdFeatureReqHandler@current_ep_data,c
  5945                           
  5946                           ; BSR set to: 4
  5947                           ;usb_device.c: 2846: }
  5948                           ;usb_device.c: 2852: if(current_ep_data.bits.ping_pong_state == 0)
  5949                           
  5950                           ; BSR set to: 4
  5951  0009A0  B043               	btfsc	USBStdFeatureReqHandler@current_ep_data,0,c
  5952  0009A2  D002               	goto	i2l3223
  5953                           
  5954                           ; BSR set to: 4
  5955                           ;usb_device.c: 2853: {
  5956                           ;usb_device.c: 2854: {((uint8_t_VAL*)&p)->Val &= ~0x0004;};
  5957  0009A4  9444               	bcf	USBStdFeatureReqHandler@p,2,c
  5958                           
  5959                           ;usb_device.c: 2855: }
  5960  0009A6  D001               	goto	i2l3225
  5961  0009A8                     i2l3223:
  5962                           
  5963                           ; BSR set to: 4
  5964                           ;usb_device.c: 2856: else
  5965                           ;usb_device.c: 2857: {
  5966                           ;usb_device.c: 2858: {((uint8_t_VAL*)&p)->Val |= 0x0004;};
  5967  0009A8  8444               	bsf	USBStdFeatureReqHandler@p,2,c
  5968  0009AA                     i2l3225:
  5969                           
  5970                           ; BSR set to: 4
  5971                           ;usb_device.c: 2859: }
  5972                           ;usb_device.c: 2864: if(SetupPkt.EPDir == 0)
  5973  0009AA  0104               	movlb	4	; () banked
  5974  0009AC  BF24               	btfsc	36,7,b	;volatile
  5975  0009AE  D00B               	goto	i2l3229
  5976                           
  5977                           ; BSR set to: 4
  5978                           ;usb_device.c: 2865: {
  5979                           ;usb_device.c: 2866: pBDTEntryOut[SetupPkt.EPNum] = (volatile BDT_ENTRY *)p;
  5980  0009B0  0104               	movlb	4	; () banked
  5981  0009B2  5124               	movf	36,w,b	;volatile
  5982  0009B4  0B0F               	andlw	15
  5983  0009B6  6E40               	movwf	??_USBStdFeatureReqHandler& (0+255),c
  5984  0009B8  5040               	movf	??_USBStdFeatureReqHandler,w,c
  5985  0009BA  0D02               	mullw	2
  5986  0009BC  0E64               	movlw	low _pBDTEntryOut
  5987  0009BE  24F3               	addwf	prodl,w,c
  5988  0009C0  6ED9               	movwf	fsr2l,c
  5989  0009C2  0E00               	movlw	high _pBDTEntryOut
  5990  0009C4  D00A               	goto	L7
  5991  0009C6                     i2l3229:
  5992                           
  5993                           ; BSR set to: 4
  5994                           ;usb_device.c: 2868: else
  5995                           ;usb_device.c: 2869: {
  5996                           ;usb_device.c: 2870: pBDTEntryIn[SetupPkt.EPNum] = (volatile BDT_ENTRY *)p;
  5997  0009C6  0104               	movlb	4	; () banked
  5998  0009C8  5124               	movf	36,w,b	;volatile
  5999  0009CA  0B0F               	andlw	15
  6000  0009CC  6E40               	movwf	??_USBStdFeatureReqHandler& (0+255),c
  6001  0009CE  5040               	movf	??_USBStdFeatureReqHandler,w,c
  6002  0009D0  0D02               	mullw	2
  6003  0009D2  0E0F               	movlw	low _pBDTEntryIn
  6004  0009D4  24F3               	addwf	prodl,w,c
  6005  0009D6  6ED9               	movwf	fsr2l,c
  6006  0009D8  0E00               	movlw	high _pBDTEntryIn
  6007  0009DA                     L7:
  6008  0009DA  20F4               	addwfc	prodh,w,c
  6009  0009DC  6EDA               	movwf	fsr2h,c
  6010  0009DE  C044  FFDE         	movff	USBStdFeatureReqHandler@p,postinc2
  6011  0009E2  C045  FFDD         	movff	USBStdFeatureReqHandler@p+1,postdec2
  6012                           
  6013                           ; BSR set to: 4
  6014                           ;usb_device.c: 2871: }
  6015                           ;usb_device.c: 2874: if(SetupPkt.bRequest == 3)
  6016                           
  6017                           ; BSR set to: 4
  6018  0009E6  0E03               	movlw	3
  6019  0009E8  0104               	movlb	4	; () banked
  6020  0009EA  1921               	xorwf	33,w,b	;volatile
  6021  0009EC  A4D8               	btfss	status,2,c
  6022  0009EE  D02E               	goto	i2l3245
  6023                           
  6024                           ; BSR set to: 4
  6025                           ;usb_device.c: 2875: {
  6026                           ;usb_device.c: 2876: if(p->STAT.UOWN == 1)
  6027  0009F0  C044  FFD9         	movff	USBStdFeatureReqHandler@p,fsr2l
  6028  0009F4  C045  FFDA         	movff	USBStdFeatureReqHandler@p+1,fsr2h
  6029  0009F8  AEDF               	btfss	indf2,7,c
  6030  0009FA  D01B               	goto	i2l3241
  6031                           
  6032                           ; BSR set to: 4
  6033                           ;usb_device.c: 2877: {
  6034                           ;usb_device.c: 2880: if(SetupPkt.EPDir == 0)
  6035  0009FC  0104               	movlb	4	; () banked
  6036  0009FE  BF24               	btfsc	36,7,b	;volatile
  6037  000A00  D00B               	goto	i2l3239
  6038                           
  6039                           ; BSR set to: 4
  6040                           ;usb_device.c: 2881: {
  6041                           ;usb_device.c: 2882: ep_data_out[SetupPkt.EPNum].bits.transfer_terminated = 1;
  6042  000A02  0104               	movlb	4	; () banked
  6043  000A04  5124               	movf	36,w,b	;volatile
  6044  000A06  0B0F               	andlw	15
  6045  000A08  6E40               	movwf	??_USBStdFeatureReqHandler& (0+255),c
  6046  000A0A  5040               	movf	??_USBStdFeatureReqHandler,w,c
  6047  000A0C  0D01               	mullw	1
  6048  000A0E  0E15               	movlw	low _ep_data_out
  6049  000A10  24F3               	addwf	prodl,w,c
  6050  000A12  6ED9               	movwf	fsr2l,c
  6051  000A14  0E00               	movlw	high _ep_data_out
  6052  000A16  D00A               	goto	L8
  6053  000A18                     i2l3239:
  6054                           
  6055                           ; BSR set to: 4
  6056                           ;usb_device.c: 2884: else
  6057                           ;usb_device.c: 2885: {
  6058                           ;usb_device.c: 2886: ep_data_in[SetupPkt.EPNum].bits.transfer_terminated = 1;
  6059  000A18  0104               	movlb	4	; () banked
  6060  000A1A  5124               	movf	36,w,b	;volatile
  6061  000A1C  0B0F               	andlw	15
  6062  000A1E  6E40               	movwf	??_USBStdFeatureReqHandler& (0+255),c
  6063  000A20  5040               	movf	??_USBStdFeatureReqHandler,w,c
  6064  000A22  0D01               	mullw	1
  6065  000A24  0E13               	movlw	low _ep_data_in
  6066  000A26  24F3               	addwf	prodl,w,c
  6067  000A28  6ED9               	movwf	fsr2l,c
  6068  000A2A  0E00               	movlw	high _ep_data_in
  6069  000A2C                     L8:
  6070  000A2C  20F4               	addwfc	prodh,w,c
  6071  000A2E  6EDA               	movwf	fsr2h,c
  6072  000A30  82DF               	bsf	indf2,1,c
  6073  000A32                     i2l3241:
  6074                           
  6075                           ; BSR set to: 4
  6076                           ;usb_device.c: 2887: }
  6077                           ;usb_device.c: 2888: }
  6078                           ;usb_device.c: 2891: p->STAT.Val |= 0x04;
  6079  000A32  C044  FFD9         	movff	USBStdFeatureReqHandler@p,fsr2l
  6080  000A36  C045  FFDA         	movff	USBStdFeatureReqHandler@p+1,fsr2h
  6081  000A3A  0E00               	movlw	0
  6082  000A3C  84DB               	bsf	plusw2,2,c
  6083                           
  6084                           ; BSR set to: 4
  6085                           ;usb_device.c: 2892: p->STAT.Val |= 0x80;
  6086  000A3E  C044  FFD9         	movff	USBStdFeatureReqHandler@p,fsr2l
  6087  000A42  C045  FFDA         	movff	USBStdFeatureReqHandler@p+1,fsr2h
  6088  000A46  0E00               	movlw	0
  6089  000A48  8EDB               	bsf	plusw2,7,c
  6090                           
  6091                           ;usb_device.c: 2893: }
  6092  000A4A  0012               	return	
  6093  000A4C                     i2l3245:
  6094                           
  6095                           ; BSR set to: 4
  6096                           ;usb_device.c: 2894: else
  6097                           ;usb_device.c: 2895: {
  6098                           ;usb_device.c: 2899: {((uint8_t_VAL*)&p)->Val ^= 0x0004;};
  6099  000A4C  0E04               	movlw	4
  6100  000A4E  1A44               	xorwf	USBStdFeatureReqHandler@p,f,c
  6101                           
  6102                           ; BSR set to: 4
  6103                           ;usb_device.c: 2901: if(p->STAT.UOWN == 1)
  6104  000A50  C044  FFD9         	movff	USBStdFeatureReqHandler@p,fsr2l
  6105  000A54  C045  FFDA         	movff	USBStdFeatureReqHandler@p+1,fsr2h
  6106  000A58  AEDF               	btfss	indf2,7,c
  6107  000A5A  D01B               	goto	i2l3255
  6108                           
  6109                           ; BSR set to: 4
  6110                           ;usb_device.c: 2902: {
  6111                           ;usb_device.c: 2905: p->STAT.Val &= (~0x80);
  6112  000A5C  C044  FFD9         	movff	USBStdFeatureReqHandler@p,fsr2l
  6113  000A60  C045  FFDA         	movff	USBStdFeatureReqHandler@p+1,fsr2h
  6114  000A64  0E7F               	movlw	127
  6115  000A66  16DF               	andwf	indf2,f,c
  6116                           
  6117                           ; BSR set to: 4
  6118                           ;usb_device.c: 2906: p->STAT.Val |= 0x40;
  6119  000A68  C044  FFD9         	movff	USBStdFeatureReqHandler@p,fsr2l
  6120  000A6C  C045  FFDA         	movff	USBStdFeatureReqHandler@p+1,fsr2h
  6121  000A70  0E00               	movlw	0
  6122  000A72  8CDB               	bsf	plusw2,6,c
  6123                           
  6124                           ; BSR set to: 4
  6125                           ;usb_device.c: 2907: USER_USB_CALLBACK_EVENT_HANDLER(EVENT_TRANSFER_TERMINATED,p,sizeof(
      +                          p));
  6126  000A74  0E00               	movlw	0
  6127  000A76  6E39               	movwf	USER_USB_CALLBACK_EVENT_HANDLER@event+1,c
  6128  000A78  0E05               	movlw	5
  6129  000A7A  6E38               	movwf	USER_USB_CALLBACK_EVENT_HANDLER@event,c
  6130  000A7C  C044  F03A         	movff	USBStdFeatureReqHandler@p,USER_USB_CALLBACK_EVENT_HANDLER@pdata
  6131  000A80  C045  F03B         	movff	USBStdFeatureReqHandler@p+1,USER_USB_CALLBACK_EVENT_HANDLER@pdata+1
  6132  000A84  0E00               	movlw	0
  6133  000A86  6E3D               	movwf	USER_USB_CALLBACK_EVENT_HANDLER@size+1,c
  6134  000A88  0E02               	movlw	2
  6135  000A8A  6E3C               	movwf	USER_USB_CALLBACK_EVENT_HANDLER@size,c
  6136  000A8C  ECE0  F00E         	call	_USER_USB_CALLBACK_EVENT_HANDLER	;wreg free
  6137                           
  6138                           ;usb_device.c: 2908: }
  6139  000A90  D006               	goto	i2l3257
  6140  000A92                     i2l3255:
  6141                           
  6142                           ;usb_device.c: 2909: else
  6143                           ;usb_device.c: 2910: {
  6144                           ;usb_device.c: 2912: p->STAT.Val |= 0x40;
  6145  000A92  C044  FFD9         	movff	USBStdFeatureReqHandler@p,fsr2l
  6146  000A96  C045  FFDA         	movff	USBStdFeatureReqHandler@p+1,fsr2h
  6147  000A9A  0E00               	movlw	0
  6148  000A9C  8CDB               	bsf	plusw2,6,c
  6149  000A9E                     i2l3257:
  6150                           
  6151                           ;usb_device.c: 2913: }
  6152                           ;usb_device.c: 2917: {((uint8_t_VAL*)&p)->Val ^= 0x0004;};
  6153  000A9E  0E04               	movlw	4
  6154  000AA0  1A44               	xorwf	USBStdFeatureReqHandler@p,f,c
  6155                           
  6156                           ;usb_device.c: 2923: if((current_ep_data.bits.transfer_terminated != 0) || (p->STAT.UOWN
      +                           == 1))
  6157  000AA2  B243               	btfsc	USBStdFeatureReqHandler@current_ep_data,1,c
  6158  000AA4  D006               	goto	i2l488
  6159  000AA6  C044  FFD9         	movff	USBStdFeatureReqHandler@p,fsr2l
  6160  000AAA  C045  FFDA         	movff	USBStdFeatureReqHandler@p+1,fsr2h
  6161  000AAE  AEDF               	btfss	indf2,7,c
  6162  000AB0  D030               	goto	i2l3271
  6163  000AB2                     i2l488:
  6164                           
  6165                           ;usb_device.c: 2924: {
  6166                           ;usb_device.c: 2925: if(SetupPkt.EPDir == 0)
  6167  000AB2  0104               	movlb	4	; () banked
  6168  000AB4  BF24               	btfsc	36,7,b	;volatile
  6169  000AB6  D00B               	goto	i2l3265
  6170                           
  6171                           ; BSR set to: 4
  6172                           ;usb_device.c: 2926: {
  6173                           ;usb_device.c: 2927: ep_data_out[SetupPkt.EPNum].bits.transfer_terminated = 0;
  6174  000AB8  0104               	movlb	4	; () banked
  6175  000ABA  5124               	movf	36,w,b	;volatile
  6176  000ABC  0B0F               	andlw	15
  6177  000ABE  6E40               	movwf	??_USBStdFeatureReqHandler& (0+255),c
  6178  000AC0  5040               	movf	??_USBStdFeatureReqHandler,w,c
  6179  000AC2  0D01               	mullw	1
  6180  000AC4  0E15               	movlw	low _ep_data_out
  6181  000AC6  24F3               	addwf	prodl,w,c
  6182  000AC8  6ED9               	movwf	fsr2l,c
  6183  000ACA  0E00               	movlw	high _ep_data_out
  6184  000ACC  D00A               	goto	L9
  6185  000ACE                     i2l3265:
  6186                           
  6187                           ; BSR set to: 4
  6188                           ;usb_device.c: 2929: else
  6189                           ;usb_device.c: 2930: {
  6190                           ;usb_device.c: 2931: ep_data_in[SetupPkt.EPNum].bits.transfer_terminated = 0;
  6191  000ACE  0104               	movlb	4	; () banked
  6192  000AD0  5124               	movf	36,w,b	;volatile
  6193  000AD2  0B0F               	andlw	15
  6194  000AD4  6E40               	movwf	??_USBStdFeatureReqHandler& (0+255),c
  6195  000AD6  5040               	movf	??_USBStdFeatureReqHandler,w,c
  6196  000AD8  0D01               	mullw	1
  6197  000ADA  0E13               	movlw	low _ep_data_in
  6198  000ADC  24F3               	addwf	prodl,w,c
  6199  000ADE  6ED9               	movwf	fsr2l,c
  6200  000AE0  0E00               	movlw	high _ep_data_in
  6201  000AE2                     L9:
  6202  000AE2  20F4               	addwfc	prodh,w,c
  6203  000AE4  6EDA               	movwf	fsr2h,c
  6204  000AE6  92DF               	bcf	indf2,1,c
  6205                           
  6206                           ; BSR set to: 4
  6207                           ;usb_device.c: 2932: }
  6208                           ;usb_device.c: 2934: p->STAT.Val &= ~(0x80 | 0x40 | 0x04);
  6209                           
  6210                           ; BSR set to: 4
  6211  000AE8  C044  FFD9         	movff	USBStdFeatureReqHandler@p,fsr2l
  6212  000AEC  C045  FFDA         	movff	USBStdFeatureReqHandler@p+1,fsr2h
  6213  000AF0  0E3B               	movlw	59
  6214  000AF2  16DF               	andwf	indf2,f,c
  6215                           
  6216                           ; BSR set to: 4
  6217                           ;usb_device.c: 2937: USER_USB_CALLBACK_EVENT_HANDLER(EVENT_TRANSFER_TERMINATED,p,sizeof(
      +                          p));
  6218  000AF4  0E00               	movlw	0
  6219  000AF6  6E39               	movwf	USER_USB_CALLBACK_EVENT_HANDLER@event+1,c
  6220  000AF8  0E05               	movlw	5
  6221  000AFA  6E38               	movwf	USER_USB_CALLBACK_EVENT_HANDLER@event,c
  6222  000AFC  C044  F03A         	movff	USBStdFeatureReqHandler@p,USER_USB_CALLBACK_EVENT_HANDLER@pdata
  6223  000B00  C045  F03B         	movff	USBStdFeatureReqHandler@p+1,USER_USB_CALLBACK_EVENT_HANDLER@pdata+1
  6224  000B04  0E00               	movlw	0
  6225  000B06  6E3D               	movwf	USER_USB_CALLBACK_EVENT_HANDLER@size+1,c
  6226  000B08  0E02               	movlw	2
  6227  000B0A  6E3C               	movwf	USER_USB_CALLBACK_EVENT_HANDLER@size,c
  6228  000B0C  ECE0  F00E         	call	_USER_USB_CALLBACK_EVENT_HANDLER	;wreg free
  6229                           
  6230                           ;usb_device.c: 2938: }
  6231  000B10  D006               	goto	i2l3273
  6232  000B12                     i2l3271:
  6233                           
  6234                           ;usb_device.c: 2939: else
  6235                           ;usb_device.c: 2940: {
  6236                           ;usb_device.c: 2942: p->STAT.Val &= ~(0x80 | 0x40 | 0x04);
  6237  000B12  C044  FFD9         	movff	USBStdFeatureReqHandler@p,fsr2l
  6238  000B16  C045  FFDA         	movff	USBStdFeatureReqHandler@p+1,fsr2h
  6239  000B1A  0E3B               	movlw	59
  6240  000B1C  16DF               	andwf	indf2,f,c
  6241  000B1E                     i2l3273:
  6242                           
  6243                           ;usb_device.c: 2943: }
  6244                           ;usb_device.c: 2990: pUEP = (unsigned char*)(&UEP0+SetupPkt.EPNum);
  6245  000B1E  0104               	movlb	4	; () banked
  6246  000B20  5124               	movf	36,w,b	;volatile
  6247  000B22  0B0F               	andlw	15
  6248  000B24  6E40               	movwf	??_USBStdFeatureReqHandler& (0+255),c
  6249  000B26  5040               	movf	??_USBStdFeatureReqHandler,w,c
  6250  000B28  0D01               	mullw	1
  6251  000B2A  0E70               	movlw	112
  6252  000B2C  24F3               	addwf	prodl,w,c
  6253  000B2E  6E41               	movwf	USBStdFeatureReqHandler@pUEP,c
  6254  000B30  0E0F               	movlw	15
  6255  000B32  20F4               	addwfc	prodh,w,c
  6256  000B34  6E42               	movwf	USBStdFeatureReqHandler@pUEP+1,c
  6257                           
  6258                           ; BSR set to: 4
  6259                           ;usb_device.c: 2994: *pUEP &= ~0x0001;
  6260  000B36  C041  FFD9         	movff	USBStdFeatureReqHandler@pUEP,fsr2l
  6261  000B3A  C042  FFDA         	movff	USBStdFeatureReqHandler@pUEP+1,fsr2h
  6262  000B3E  0EFE               	movlw	254
  6263  000B40  16DF               	andwf	indf2,f,c
  6264                           
  6265                           ; BSR set to: 4
  6266  000B42  0012               	return	
  6267  000B44                     __end_of_USBStdFeatureReqHandler:
  6268                           	opt stack 0
  6269                           pclatu	equ	0xFFB
  6270                           pclath	equ	0xFFA
  6271                           tblptru	equ	0xFF8
  6272                           tblptrh	equ	0xFF7
  6273                           tblptrl	equ	0xFF6
  6274                           tablat	equ	0xFF5
  6275                           prodh	equ	0xFF4
  6276                           prodl	equ	0xFF3
  6277                           intcon	equ	0xFF2
  6278                           indf0	equ	0xFEF
  6279                           postinc0	equ	0xFEE
  6280                           fsr0h	equ	0xFEA
  6281                           fsr0l	equ	0xFE9
  6282                           wreg	equ	0xFE8
  6283                           indf1	equ	0xFE7
  6284                           fsr1h	equ	0xFE2
  6285                           fsr1l	equ	0xFE1
  6286                           indf2	equ	0xFDF
  6287                           postinc2	equ	0xFDE
  6288                           postdec2	equ	0xFDD
  6289                           plusw2	equ	0xFDB
  6290                           fsr2h	equ	0xFDA
  6291                           fsr2l	equ	0xFD9
  6292                           status	equ	0xFD8
  6293                           
  6294 ;; *************** function _USER_USB_CALLBACK_EVENT_HANDLER *****************
  6295 ;; Defined at:
  6296 ;;		line 80 in file "../src/master/main.c"
  6297 ;; Parameters:    Size  Location     Type
  6298 ;;  event           2   12[COMRAM] enum E4753
  6299 ;;  pdata           2   14[COMRAM] PTR void 
  6300 ;;		 -> USTATcopy(1), USBActiveConfiguration(1), NULL(0), BDT(32), 
  6301 ;;  size            2   16[COMRAM] unsigned int 
  6302 ;; Auto vars:     Size  Location     Type
  6303 ;;		None
  6304 ;; Return value:  Size  Location     Type
  6305 ;;                  1    wreg      unsigned char 
  6306 ;; Registers used:
  6307 ;;		wreg, fsr2l, fsr2h, status,2, status,0, prodl, prodh, cstack
  6308 ;; Tracked objects:
  6309 ;;		On entry : 0/0
  6310 ;;		On exit  : 0/0
  6311 ;;		Unchanged: 0/0
  6312 ;; Data sizes:     COMRAM   BANK0   BANK1   BANK2   BANK3   BANK4   BANK5   BANK6   BANK7
  6313 ;;      Params:         6       0       0       0       0       0       0       0       0
  6314 ;;      Locals:         0       0       0       0       0       0       0       0       0
  6315 ;;      Temps:          2       0       0       0       0       0       0       0       0
  6316 ;;      Totals:         8       0       0       0       0       0       0       0       0
  6317 ;;Total ram usage:        8 bytes
  6318 ;; Hardware stack levels used:    1
  6319 ;; Hardware stack levels required when called:    3
  6320 ;; This function calls:
  6321 ;;		_APP_DeviceCustomHIDInitialize
  6322 ;;		_USBCheckHIDRequest
  6323 ;;		i2_SYSTEM_Initialize
  6324 ;; This function is called by:
  6325 ;;		_USBDeviceTasks
  6326 ;;		_USBStdSetCfgHandler
  6327 ;;		_USBSuspend
  6328 ;;		_USBWakeFromSuspend
  6329 ;;		_USBCtrlTrfSetupHandler
  6330 ;;		_USBCheckStdRequest
  6331 ;;		_USBStdFeatureReqHandler
  6332 ;; This function uses a non-reentrant model
  6333 ;;
  6334                           
  6335                           	psect	text31
  6336  001DC0                     __ptext31:
  6337                           	opt stack 0
  6338  001DC0                     _USER_USB_CALLBACK_EVENT_HANDLER:
  6339                           	opt stack 22
  6340                           
  6341                           ;main.c: 82: switch((int)event)
  6342                           
  6343                           ; BSR set to: 4
  6344                           ;incstack = 0
  6345  001DC0  D00E               	goto	i2l3011
  6346  001DC2                     i2l3001:
  6347                           
  6348                           ;main.c: 103: SYSTEM_Initialize(SYSTEM_STATE_USB_SUSPEND);
  6349  001DC2  0E01               	movlw	1
  6350  001DC4  EC18  F00F         	call	i2_SYSTEM_Initialize
  6351                           
  6352                           ;main.c: 104: break;
  6353  001DC8  0012               	return	
  6354  001DCA                     i2l3003:
  6355                           
  6356                           ;main.c: 114: SYSTEM_Initialize(SYSTEM_STATE_USB_RESUME);
  6357  001DCA  0E02               	movlw	2
  6358  001DCC  EC18  F00F         	call	i2_SYSTEM_Initialize
  6359                           
  6360                           ;main.c: 115: break;
  6361  001DD0  0012               	return	
  6362  001DD2                     i2l3005:
  6363                           
  6364                           ;main.c: 120: APP_DeviceCustomHIDInitialize();
  6365  001DD2  ECBC  F010         	call	_APP_DeviceCustomHIDInitialize	;wreg free
  6366                           
  6367                           ;main.c: 124: break;
  6368                           
  6369                           ;main.c: 123: case EVENT_SET_DESCRIPTOR:
  6370                           
  6371                           ;main.c: 121: break;
  6372  001DD6  0012               	return	
  6373  001DD8                     i2l3007:
  6374                           
  6375                           ;main.c: 129: USBCheckHIDRequest();
  6376  001DD8  ECF0  F009         	call	_USBCheckHIDRequest	;wreg free
  6377                           
  6378                           ;main.c: 140: }
  6379                           
  6380                           ;main.c: 139: break;
  6381                           
  6382                           ;main.c: 138: default:
  6383                           
  6384                           ;main.c: 136: break;
  6385                           
  6386                           ;main.c: 135: case EVENT_TRANSFER_TERMINATED:
  6387                           
  6388                           ;main.c: 133: break;
  6389                           
  6390                           ;main.c: 132: case EVENT_BUS_ERROR:
  6391                           
  6392                           ;main.c: 130: break;
  6393  001DDC  0012               	return	
  6394  001DDE                     i2l3011:
  6395  001DDE  C038  F03E         	movff	USER_USB_CALLBACK_EVENT_HANDLER@event,??_USER_USB_CALLBACK_EVENT_HANDLER
  6396  001DE2  C039  F03F         	movff	USER_USB_CALLBACK_EVENT_HANDLER@event+1,??_USER_USB_CALLBACK_EVENT_HANDLER+1
  6397                           
  6398                           ; Switch on 2 bytes has been partitioned into a top level switch of size 1, and 2 sub-sw
      +                          itches
  6399                           ; Switch size 1, requested type "space"
  6400                           ; Number of cases is 2, Range of values is 0 to 127
  6401                           ; switch strategies available:
  6402                           ; Name         Instructions Cycles
  6403                           ; simple_byte            7     4 (average)
  6404                           ;	Chosen strategy is simple_byte
  6405  001DE6  503F               	movf	??_USER_USB_CALLBACK_EVENT_HANDLER+1,w,c
  6406  001DE8  0A00               	xorlw	0	; case 0
  6407  001DEA  B4D8               	btfsc	status,2,c
  6408  001DEC  D004               	goto	i2l4335
  6409  001DEE  0A7F               	xorlw	127	; case 127
  6410  001DF0  A4D8               	btfss	status,2,c
  6411  001DF2  0012               	return	
  6412  001DF4  D01A               	goto	i2l4337
  6413  001DF6                     i2l4335:
  6414                           
  6415                           ; Switch size 1, requested type "space"
  6416                           ; Number of cases is 8, Range of values is 1 to 117
  6417                           ; switch strategies available:
  6418                           ; Name         Instructions Cycles
  6419                           ; simple_byte           25    13 (average)
  6420                           ;	Chosen strategy is simple_byte
  6421  001DF6  503E               	movf	??_USER_USB_CALLBACK_EVENT_HANDLER,w,c
  6422  001DF8  0A01               	xorlw	1	; case 1
  6423  001DFA  B4D8               	btfsc	status,2,c
  6424  001DFC  D7EA               	goto	i2l3005
  6425  001DFE  0A03               	xorlw	3	; case 2
  6426  001E00  B4D8               	btfsc	status,2,c
  6427  001E02  0012               	return	
  6428  001E04  0A01               	xorlw	1	; case 3
  6429  001E06  B4D8               	btfsc	status,2,c
  6430  001E08  D7E7               	goto	i2l3007
  6431  001E0A  0A06               	xorlw	6	; case 5
  6432  001E0C  B4D8               	btfsc	status,2,c
  6433  001E0E  0012               	return	
  6434  001E10  0A77               	xorlw	119	; case 114
  6435  001E12  B4D8               	btfsc	status,2,c
  6436  001E14  0012               	return	
  6437  001E16  0A01               	xorlw	1	; case 115
  6438  001E18  B4D8               	btfsc	status,2,c
  6439  001E1A  0012               	return	
  6440  001E1C  0A07               	xorlw	7	; case 116
  6441  001E1E  B4D8               	btfsc	status,2,c
  6442  001E20  D7D4               	goto	i2l3003
  6443  001E22  0A01               	xorlw	1	; case 117
  6444  001E24  A4D8               	btfss	status,2,c
  6445  001E26  0012               	return	
  6446  001E28  D7CC               	goto	i2l3001
  6447  001E2A                     i2l4337:
  6448                           
  6449                           ; Switch size 1, requested type "space"
  6450                           ; Number of cases is 1, Range of values is 255 to 255
  6451                           ; switch strategies available:
  6452                           ; Name         Instructions Cycles
  6453                           ; simple_byte            4     3 (average)
  6454                           ;	Chosen strategy is simple_byte
  6455  001E2A  503E               	movf	??_USER_USB_CALLBACK_EVENT_HANDLER,w,c
  6456  001E2C  0AFF               	xorlw	255	; case 255
  6457  001E2E  0012               	return	
  6458  001E30                     __end_of_USER_USB_CALLBACK_EVENT_HANDLER:
  6459                           	opt stack 0
  6460                           pclatu	equ	0xFFB
  6461                           pclath	equ	0xFFA
  6462                           tblptru	equ	0xFF8
  6463                           tblptrh	equ	0xFF7
  6464                           tblptrl	equ	0xFF6
  6465                           tablat	equ	0xFF5
  6466                           prodh	equ	0xFF4
  6467                           prodl	equ	0xFF3
  6468                           intcon	equ	0xFF2
  6469                           indf0	equ	0xFEF
  6470                           postinc0	equ	0xFEE
  6471                           fsr0h	equ	0xFEA
  6472                           fsr0l	equ	0xFE9
  6473                           wreg	equ	0xFE8
  6474                           indf1	equ	0xFE7
  6475                           fsr1h	equ	0xFE2
  6476                           fsr1l	equ	0xFE1
  6477                           indf2	equ	0xFDF
  6478                           postinc2	equ	0xFDE
  6479                           postdec2	equ	0xFDD
  6480                           plusw2	equ	0xFDB
  6481                           fsr2h	equ	0xFDA
  6482                           fsr2l	equ	0xFD9
  6483                           status	equ	0xFD8
  6484                           
  6485 ;; *************** function i2_SYSTEM_Initialize *****************
  6486 ;; Defined at:
  6487 ;;		line 57 in file "../src/master/system.c"
  6488 ;; Parameters:    Size  Location     Type
  6489 ;;  state           1    wreg     enum E4544
  6490 ;; Auto vars:     Size  Location     Type
  6491 ;;  state           1    4[COMRAM] enum E4544
  6492 ;;  SYSTEM_Initi    1    5[COMRAM] unsigned char 
  6493 ;; Return value:  Size  Location     Type
  6494 ;;                  1    wreg      void 
  6495 ;; Registers used:
  6496 ;;		wreg, status,2, status,0, cstack
  6497 ;; Tracked objects:
  6498 ;;		On entry : 0/0
  6499 ;;		On exit  : 0/0
  6500 ;;		Unchanged: 0/0
  6501 ;; Data sizes:     COMRAM   BANK0   BANK1   BANK2   BANK3   BANK4   BANK5   BANK6   BANK7
  6502 ;;      Params:         0       0       0       0       0       0       0       0       0
  6503 ;;      Locals:         2       0       0       0       0       0       0       0       0
  6504 ;;      Temps:          1       0       0       0       0       0       0       0       0
  6505 ;;      Totals:         3       0       0       0       0       0       0       0       0
  6506 ;;Total ram usage:        3 bytes
  6507 ;; Hardware stack levels used:    1
  6508 ;; Hardware stack levels required when called:    2
  6509 ;; This function calls:
  6510 ;;		i2_PWM_R_OpenPWM
  6511 ;;		i2_SPI_R_OpenSPI
  6512 ;; This function is called by:
  6513 ;;		_USER_USB_CALLBACK_EVENT_HANDLER
  6514 ;; This function uses a non-reentrant model
  6515 ;;
  6516                           
  6517                           	psect	text32
  6518  001E30                     __ptext32:
  6519                           	opt stack 0
  6520  001E30                     i2_SYSTEM_Initialize:
  6521                           	opt stack 22
  6522                           
  6523                           ;incstack = 0
  6524                           ;i2SYSTEM_Initialize@state stored from wreg
  6525  001E30  6E30               	movwf	i2SYSTEM_Initialize@state,c
  6526                           
  6527                           ;system.c: 58: switch(state) {
  6528  001E32  D029               	goto	i2l2997
  6529  001E34                     i2l561:
  6530                           
  6531                           ;system.c: 60: TRISA = 0xFF;
  6532  001E34  6892               	setf	3986,c	;volatile
  6533                           
  6534                           ;system.c: 61: LATA = 0x00;
  6535  001E36  0E00               	movlw	0
  6536  001E38  6E89               	movwf	3977,c	;volatile
  6537                           
  6538                           ;system.c: 63: TRISB = 0xFF;
  6539  001E3A  6893               	setf	3987,c	;volatile
  6540                           
  6541                           ;system.c: 64: LATB = 0x00;
  6542  001E3C  0E00               	movlw	0
  6543  001E3E  6E8A               	movwf	3978,c	;volatile
  6544                           
  6545                           ;system.c: 65: TRISBbits.TRISB2 = 0;
  6546  001E40  9493               	bcf	3987,2,c	;volatile
  6547                           
  6548                           ;system.c: 74: SPI_R_OpenSPI(0b00000001, 0b00000010, 0b00000000 );
  6549  001E42  0E02               	movlw	2
  6550  001E44  6E2C               	movwf	i2SPI_R_OpenSPI@bus_mode,c
  6551  001E46  0E00               	movlw	0
  6552  001E48  6E2D               	movwf	i2SPI_R_OpenSPI@smp_phase,c
  6553  001E4A  0E01               	movlw	1
  6554  001E4C  ECAA  F00F         	call	i2_SPI_R_OpenSPI
  6555                           
  6556                           ;system.c: 80: PWM_R_OpenPWM();
  6557  001E50  EC3B  F011         	call	i2_PWM_R_OpenPWM	;wreg free
  6558                           
  6559                           ;system.c: 84: for(unsigned char n = 0; n < 10; n++)
  6560  001E54  0E00               	movlw	0
  6561  001E56  6E31               	movwf	i2SYSTEM_Initialize@n,c
  6562  001E58                     i2l2983:
  6563  001E58  0E09               	movlw	9
  6564  001E5A  6431               	cpfsgt	i2SYSTEM_Initialize@n,c
  6565  001E5C  D001               	goto	i2l2987
  6566  001E5E  D009               	goto	i2l563
  6567  001E60                     i2l2987:
  6568                           
  6569                           ;system.c: 85: _delay((unsigned long)((100)*(4000000/4000.0)));
  6570  001E60  0E82               	movlw	130
  6571  001E62  6E2F               	movwf	??i2_SYSTEM_Initialize& (0+255),c
  6572  001E64  0EDE               	movlw	222
  6573  001E66                     i2u311_47:
  6574  001E66  2EE8               	decfsz	wreg,f,c
  6575  001E68  D7FE               	goto	i2u311_47
  6576  001E6A  2E2F               	decfsz	??i2_SYSTEM_Initialize& (0+255),f,c
  6577  001E6C  D7FC               	goto	i2u311_47
  6578  001E6E  2A31               	incf	i2SYSTEM_Initialize@n,f,c
  6579  001E70  D7F3               	goto	i2l2983
  6580  001E72                     i2l563:
  6581                           
  6582                           ;system.c: 87: LATBbits.LATB2 = 1;
  6583  001E72  848A               	bsf	3978,2,c	;volatile
  6584                           
  6585                           ;system.c: 88: _delay((unsigned long)((100)*(4000000/4000.0)));
  6586  001E74  0E82               	movlw	130
  6587  001E76  6E2F               	movwf	??i2_SYSTEM_Initialize& (0+255),c
  6588  001E78  0EDE               	movlw	222
  6589  001E7A                     i2u312_47:
  6590  001E7A  2EE8               	decfsz	wreg,f,c
  6591  001E7C  D7FE               	goto	i2u312_47
  6592  001E7E  2E2F               	decfsz	??i2_SYSTEM_Initialize& (0+255),f,c
  6593  001E80  D7FC               	goto	i2u312_47
  6594                           
  6595                           ;system.c: 89: LATBbits.LATB2 = 0;
  6596  001E82  948A               	bcf	3978,2,c	;volatile
  6597                           
  6598                           ;system.c: 98: }
  6599                           
  6600                           ;system.c: 97: break;
  6601                           
  6602                           ;system.c: 96: case SYSTEM_STATE_USB_RESUME:
  6603                           
  6604                           ;system.c: 94: break;
  6605                           
  6606                           ;system.c: 93: case SYSTEM_STATE_USB_SUSPEND:
  6607                           
  6608                           ;system.c: 91: break;
  6609  001E84  0012               	return	
  6610  001E86                     i2l2997:
  6611  001E86  5030               	movf	i2SYSTEM_Initialize@state,w,c
  6612                           
  6613                           ; Switch size 1, requested type "space"
  6614                           ; Number of cases is 3, Range of values is 0 to 2
  6615                           ; switch strategies available:
  6616                           ; Name         Instructions Cycles
  6617                           ; simple_byte           10     6 (average)
  6618                           ;	Chosen strategy is simple_byte
  6619  001E88  0A00               	xorlw	0	; case 0
  6620  001E8A  B4D8               	btfsc	status,2,c
  6621  001E8C  D7D3               	goto	i2l561
  6622  001E8E  0A01               	xorlw	1	; case 1
  6623  001E90  B4D8               	btfsc	status,2,c
  6624  001E92  0012               	return	
  6625  001E94  0A03               	xorlw	3	; case 2
  6626  001E96  0012               	return	
  6627  001E98                     __end_ofi2_SYSTEM_Initialize:
  6628                           	opt stack 0
  6629                           pclatu	equ	0xFFB
  6630                           pclath	equ	0xFFA
  6631                           tblptru	equ	0xFF8
  6632                           tblptrh	equ	0xFF7
  6633                           tblptrl	equ	0xFF6
  6634                           tablat	equ	0xFF5
  6635                           prodh	equ	0xFF4
  6636                           prodl	equ	0xFF3
  6637                           intcon	equ	0xFF2
  6638                           indf0	equ	0xFEF
  6639                           postinc0	equ	0xFEE
  6640                           fsr0h	equ	0xFEA
  6641                           fsr0l	equ	0xFE9
  6642                           wreg	equ	0xFE8
  6643                           indf1	equ	0xFE7
  6644                           fsr1h	equ	0xFE2
  6645                           fsr1l	equ	0xFE1
  6646                           indf2	equ	0xFDF
  6647                           postinc2	equ	0xFDE
  6648                           postdec2	equ	0xFDD
  6649                           plusw2	equ	0xFDB
  6650                           fsr2h	equ	0xFDA
  6651                           fsr2l	equ	0xFD9
  6652                           status	equ	0xFD8
  6653                           
  6654 ;; *************** function i2_SPI_R_OpenSPI *****************
  6655 ;; Defined at:
  6656 ;;		line 3 in file "../../../../_ELECTRONIC/inc/spi_r.c"
  6657 ;; Parameters:    Size  Location     Type
  6658 ;;  sync_mode       1    wreg     unsigned char 
  6659 ;;  bus_mode        1    0[COMRAM] unsigned char 
  6660 ;;  smp_phase       1    1[COMRAM] unsigned char 
  6661 ;; Auto vars:     Size  Location     Type
  6662 ;;  sync_mode       1    2[COMRAM] unsigned char 
  6663 ;; Return value:  Size  Location     Type
  6664 ;;                  1    wreg      void 
  6665 ;; Registers used:
  6666 ;;		wreg, status,2, status,0
  6667 ;; Tracked objects:
  6668 ;;		On entry : 0/0
  6669 ;;		On exit  : 0/0
  6670 ;;		Unchanged: 0/0
  6671 ;; Data sizes:     COMRAM   BANK0   BANK1   BANK2   BANK3   BANK4   BANK5   BANK6   BANK7
  6672 ;;      Params:         2       0       0       0       0       0       0       0       0
  6673 ;;      Locals:         1       0       0       0       0       0       0       0       0
  6674 ;;      Temps:          0       0       0       0       0       0       0       0       0
  6675 ;;      Totals:         3       0       0       0       0       0       0       0       0
  6676 ;;Total ram usage:        3 bytes
  6677 ;; Hardware stack levels used:    1
  6678 ;; This function calls:
  6679 ;;		Nothing
  6680 ;; This function is called by:
  6681 ;;		i2_SYSTEM_Initialize
  6682 ;; This function uses a non-reentrant model
  6683 ;;
  6684                           
  6685                           	psect	text33
  6686  001F54                     __ptext33:
  6687                           	opt stack 0
  6688  001F54                     i2_SPI_R_OpenSPI:
  6689                           	opt stack 23
  6690                           
  6691                           ;incstack = 0
  6692                           ;i2SPI_R_OpenSPI@sync_mode stored from wreg
  6693  001F54  6E2E               	movwf	i2SPI_R_OpenSPI@sync_mode,c
  6694                           
  6695                           ;spi_r.c: 4: SSPSTAT &= 0x3F;
  6696  001F56  0E3F               	movlw	63
  6697  001F58  16C7               	andwf	4039,f,c	;volatile
  6698                           
  6699                           ;spi_r.c: 5: SSPCON1 = 0x00;
  6700  001F5A  0E00               	movlw	0
  6701  001F5C  6EC6               	movwf	4038,c	;volatile
  6702                           
  6703                           ;spi_r.c: 6: SSPCON1 |= sync_mode;
  6704  001F5E  502E               	movf	i2SPI_R_OpenSPI@sync_mode,w,c
  6705  001F60  12C6               	iorwf	4038,f,c	;volatile
  6706                           
  6707                           ;spi_r.c: 7: SSPSTAT |= smp_phase;
  6708  001F62  502D               	movf	i2SPI_R_OpenSPI@smp_phase,w,c
  6709  001F64  12C7               	iorwf	4039,f,c	;volatile
  6710                           
  6711                           ;spi_r.c: 9: switch( bus_mode ) {
  6712  001F66  D005               	goto	i2l2897
  6713  001F68                     i2l682:
  6714                           
  6715                           ;spi_r.c: 11: SSPSTATbits.CKE = 1;
  6716  001F68  8CC7               	bsf	4039,6,c	;volatile
  6717                           
  6718                           ;spi_r.c: 12: break;
  6719  001F6A  D013               	goto	i2l2901
  6720  001F6C                     i2l684:
  6721                           
  6722                           ;spi_r.c: 14: SSPSTATbits.CKE = 1;
  6723  001F6C  8CC7               	bsf	4039,6,c	;volatile
  6724  001F6E                     i2l685:
  6725                           
  6726                           ;spi_r.c: 18: SSPCON1bits.CKP = 1;
  6727  001F6E  88C6               	bsf	4038,4,c	;volatile
  6728                           
  6729                           ;spi_r.c: 22: }
  6730                           
  6731                           ;spi_r.c: 21: break;
  6732                           
  6733                           ;spi_r.c: 20: default:
  6734                           
  6735                           ;spi_r.c: 19: break;
  6736  001F70  D010               	goto	i2l2901
  6737  001F72                     i2l2897:
  6738  001F72  502C               	movf	i2SPI_R_OpenSPI@bus_mode,w,c
  6739                           
  6740                           ; Switch size 1, requested type "space"
  6741                           ; Number of cases is 3, Range of values is 0 to 3
  6742                           ; switch strategies available:
  6743                           ; Name         Instructions Cycles
  6744                           ; simple_byte           10     6 (average)
  6745                           ;	Chosen strategy is simple_byte
  6746  001F74  0A00               	xorlw	0	; case 0
  6747  001F76  B4D8               	btfsc	status,2,c
  6748  001F78  D7F7               	goto	i2l682
  6749  001F7A  0A02               	xorlw	2	; case 2
  6750  001F7C  B4D8               	btfsc	status,2,c
  6751  001F7E  D7F6               	goto	i2l684
  6752  001F80  0A01               	xorlw	1	; case 3
  6753  001F82  B4D8               	btfsc	status,2,c
  6754  001F84  D7F4               	goto	i2l685
  6755                           
  6756                           ;spi_r.c: 24: switch( sync_mode ) {
  6757  001F86  D005               	goto	i2l2901
  6758  001F88                     i2l688:
  6759                           
  6760                           ;spi_r.c: 26: TRISAbits.TRISA5 = 1;
  6761  001F88  8A92               	bsf	3986,5,c	;volatile
  6762  001F8A                     i2l690:
  6763                           
  6764                           ;spi_r.c: 31: TRISBbits.TRISB1 = 1;
  6765  001F8A  8293               	bsf	3987,1,c	;volatile
  6766                           
  6767                           ;spi_r.c: 32: break;
  6768  001F8C  D00A               	goto	i2l689
  6769  001F8E                     i2l691:
  6770                           
  6771                           ;spi_r.c: 35: TRISBbits.TRISB1 = 0;
  6772  001F8E  9293               	bcf	3987,1,c	;volatile
  6773                           
  6774                           ;spi_r.c: 37: }
  6775                           
  6776                           ;spi_r.c: 36: break;
  6777  001F90  D008               	goto	i2l689
  6778  001F92                     i2l2901:
  6779  001F92  502E               	movf	i2SPI_R_OpenSPI@sync_mode,w,c
  6780                           
  6781                           ; Switch size 1, requested type "space"
  6782                           ; Number of cases is 2, Range of values is 4 to 5
  6783                           ; switch strategies available:
  6784                           ; Name         Instructions Cycles
  6785                           ; simple_byte            7     4 (average)
  6786                           ;	Chosen strategy is simple_byte
  6787  001F94  0A04               	xorlw	4	; case 4
  6788  001F96  B4D8               	btfsc	status,2,c
  6789  001F98  D7F7               	goto	i2l688
  6790  001F9A  0A01               	xorlw	1	; case 5
  6791  001F9C  B4D8               	btfsc	status,2,c
  6792  001F9E  D7F5               	goto	i2l690
  6793  001FA0  D7F6               	goto	i2l691
  6794  001FA2                     i2l689:
  6795                           
  6796                           ;spi_r.c: 38: TRISBbits.TRISB0 = 1;
  6797  001FA2  8093               	bsf	3987,0,c	;volatile
  6798                           
  6799                           ;spi_r.c: 39: TRISCbits.TRISC7 = 0;
  6800  001FA4  9E94               	bcf	3988,7,c	;volatile
  6801                           
  6802                           ;spi_r.c: 41: SSPCON1 |= 0b00100000;
  6803  001FA6  8AC6               	bsf	4038,5,c	;volatile
  6804  001FA8  0012               	return		;funcret
  6805  001FAA                     __end_ofi2_SPI_R_OpenSPI:
  6806                           	opt stack 0
  6807                           pclatu	equ	0xFFB
  6808                           pclath	equ	0xFFA
  6809                           tblptru	equ	0xFF8
  6810                           tblptrh	equ	0xFF7
  6811                           tblptrl	equ	0xFF6
  6812                           tablat	equ	0xFF5
  6813                           prodh	equ	0xFF4
  6814                           prodl	equ	0xFF3
  6815                           intcon	equ	0xFF2
  6816                           indf0	equ	0xFEF
  6817                           postinc0	equ	0xFEE
  6818                           fsr0h	equ	0xFEA
  6819                           fsr0l	equ	0xFE9
  6820                           wreg	equ	0xFE8
  6821                           indf1	equ	0xFE7
  6822                           fsr1h	equ	0xFE2
  6823                           fsr1l	equ	0xFE1
  6824                           indf2	equ	0xFDF
  6825                           postinc2	equ	0xFDE
  6826                           postdec2	equ	0xFDD
  6827                           plusw2	equ	0xFDB
  6828                           fsr2h	equ	0xFDA
  6829                           fsr2l	equ	0xFD9
  6830                           status	equ	0xFD8
  6831                           
  6832 ;; *************** function i2_PWM_R_OpenPWM *****************
  6833 ;; Defined at:
  6834 ;;		line 17 in file "../../../../_ELECTRONIC/inc/pwm_r.c"
  6835 ;; Parameters:    Size  Location     Type
  6836 ;;		None
  6837 ;; Auto vars:     Size  Location     Type
  6838 ;;		None
  6839 ;; Return value:  Size  Location     Type
  6840 ;;                  1    wreg      void 
  6841 ;; Registers used:
  6842 ;;		wreg, status,2, status,0, cstack
  6843 ;; Tracked objects:
  6844 ;;		On entry : 0/0
  6845 ;;		On exit  : 0/0
  6846 ;;		Unchanged: 0/0
  6847 ;; Data sizes:     COMRAM   BANK0   BANK1   BANK2   BANK3   BANK4   BANK5   BANK6   BANK7
  6848 ;;      Params:         0       0       0       0       0       0       0       0       0
  6849 ;;      Locals:         0       0       0       0       0       0       0       0       0
  6850 ;;      Temps:          0       0       0       0       0       0       0       0       0
  6851 ;;      Totals:         0       0       0       0       0       0       0       0       0
  6852 ;;Total ram usage:        0 bytes
  6853 ;; Hardware stack levels used:    1
  6854 ;; Hardware stack levels required when called:    1
  6855 ;; This function calls:
  6856 ;;		i2_PWM_R_setPWM1
  6857 ;;		i2_PWM_R_setPWM2
  6858 ;; This function is called by:
  6859 ;;		i2_SYSTEM_Initialize
  6860 ;; This function uses a non-reentrant model
  6861 ;;
  6862                           
  6863                           	psect	text34
  6864  002276                     __ptext34:
  6865                           	opt stack 0
  6866  002276                     i2_PWM_R_OpenPWM:
  6867                           	opt stack 22
  6868                           
  6869                           ;pwm_r.c: 19: PR2 = 0xFF;
  6870                           
  6871                           ;incstack = 0
  6872  002276  68CB               	setf	4043,c	;volatile
  6873                           
  6874                           ;pwm_r.c: 21: PWM_R_setPWM1(0x00);
  6875  002278  0E00               	movlw	0
  6876  00227A  6E2D               	movwf	i2PWM_R_setPWM1@val+1,c
  6877  00227C  0E00               	movlw	0
  6878  00227E  6E2C               	movwf	i2PWM_R_setPWM1@val,c
  6879  002280  EC80  F010         	call	i2_PWM_R_setPWM1	;wreg free
  6880                           
  6881                           ;pwm_r.c: 22: PWM_R_setPWM2(0x00);
  6882  002284  0E00               	movlw	0
  6883  002286  6E2D               	movwf	i2PWM_R_setPWM2@val+1,c
  6884  002288  0E00               	movlw	0
  6885  00228A  6E2C               	movwf	i2PWM_R_setPWM2@val,c
  6886  00228C  EC62  F010         	call	i2_PWM_R_setPWM2	;wreg free
  6887                           
  6888                           ;pwm_r.c: 25: TRISCbits.RC1 = 0;
  6889  002290  9294               	bcf	3988,1,c	;volatile
  6890                           
  6891                           ;pwm_r.c: 26: TRISCbits.RC2 = 0;
  6892  002292  9494               	bcf	3988,2,c	;volatile
  6893                           
  6894                           ;pwm_r.c: 36: T2CKPS0 = 1;
  6895  002294  80CA               	bsf	4042,0,c	;volatile
  6896                           
  6897                           ;pwm_r.c: 37: T2CKPS1 = 1;
  6898  002296  82CA               	bsf	4042,1,c	;volatile
  6899                           
  6900                           ;pwm_r.c: 39: TMR2ON = 1;
  6901  002298  84CA               	bsf	4042,2,c	;volatile
  6902                           
  6903                           ;pwm_r.c: 42: CCP1M3 = 1;
  6904  00229A  86BD               	bsf	4029,3,c	;volatile
  6905                           
  6906                           ;pwm_r.c: 43: CCP1M2 = 1;
  6907  00229C  84BD               	bsf	4029,2,c	;volatile
  6908                           
  6909                           ;pwm_r.c: 45: CCP2M3 = 1;
  6910  00229E  86BA               	bsf	4026,3,c	;volatile
  6911                           
  6912                           ;pwm_r.c: 46: CCP2M2 = 1;
  6913  0022A0  84BA               	bsf	4026,2,c	;volatile
  6914  0022A2  0012               	return		;funcret
  6915  0022A4                     __end_ofi2_PWM_R_OpenPWM:
  6916                           	opt stack 0
  6917                           pclatu	equ	0xFFB
  6918                           pclath	equ	0xFFA
  6919                           tblptru	equ	0xFF8
  6920                           tblptrh	equ	0xFF7
  6921                           tblptrl	equ	0xFF6
  6922                           tablat	equ	0xFF5
  6923                           prodh	equ	0xFF4
  6924                           prodl	equ	0xFF3
  6925                           intcon	equ	0xFF2
  6926                           indf0	equ	0xFEF
  6927                           postinc0	equ	0xFEE
  6928                           fsr0h	equ	0xFEA
  6929                           fsr0l	equ	0xFE9
  6930                           wreg	equ	0xFE8
  6931                           indf1	equ	0xFE7
  6932                           fsr1h	equ	0xFE2
  6933                           fsr1l	equ	0xFE1
  6934                           indf2	equ	0xFDF
  6935                           postinc2	equ	0xFDE
  6936                           postdec2	equ	0xFDD
  6937                           plusw2	equ	0xFDB
  6938                           fsr2h	equ	0xFDA
  6939                           fsr2l	equ	0xFD9
  6940                           status	equ	0xFD8
  6941                           
  6942 ;; *************** function i2_PWM_R_setPWM2 *****************
  6943 ;; Defined at:
  6944 ;;		line 11 in file "../../../../_ELECTRONIC/inc/pwm_r.c"
  6945 ;; Parameters:    Size  Location     Type
  6946 ;;  val             2    0[COMRAM] unsigned int 
  6947 ;; Auto vars:     Size  Location     Type
  6948 ;;		None
  6949 ;; Return value:  Size  Location     Type
  6950 ;;                  1    wreg      void 
  6951 ;; Registers used:
  6952 ;;		wreg, status,2, status,0
  6953 ;; Tracked objects:
  6954 ;;		On entry : 0/0
  6955 ;;		On exit  : 0/0
  6956 ;;		Unchanged: 0/0
  6957 ;; Data sizes:     COMRAM   BANK0   BANK1   BANK2   BANK3   BANK4   BANK5   BANK6   BANK7
  6958 ;;      Params:         2       0       0       0       0       0       0       0       0
  6959 ;;      Locals:         0       0       0       0       0       0       0       0       0
  6960 ;;      Temps:          1       0       0       0       0       0       0       0       0
  6961 ;;      Totals:         3       0       0       0       0       0       0       0       0
  6962 ;;Total ram usage:        3 bytes
  6963 ;; Hardware stack levels used:    1
  6964 ;; This function calls:
  6965 ;;		Nothing
  6966 ;; This function is called by:
  6967 ;;		i2_PWM_R_OpenPWM
  6968 ;; This function uses a non-reentrant model
  6969 ;;
  6970                           
  6971                           	psect	text35
  6972  0020C4                     __ptext35:
  6973                           	opt stack 0
  6974  0020C4                     i2_PWM_R_setPWM2:
  6975                           	opt stack 22
  6976                           
  6977                           ;pwm_r.c: 12: CCP2CONbits.DC2B0 = (val & 0x01); val >>= 1;
  6978                           
  6979                           ;incstack = 0
  6980  0020C4  C02C  F02E         	movff	i2PWM_R_setPWM2@val,??i2_PWM_R_setPWM2
  6981  0020C8  0E01               	movlw	1
  6982  0020CA  162E               	andwf	??i2_PWM_R_setPWM2,f,c
  6983  0020CC  3A2E               	swapf	??i2_PWM_R_setPWM2,f,c
  6984  0020CE  50BA               	movf	4026,w,c	;volatile
  6985  0020D0  182E               	xorwf	??i2_PWM_R_setPWM2,w,c
  6986  0020D2  0BEF               	andlw	-17
  6987  0020D4  182E               	xorwf	??i2_PWM_R_setPWM2,w,c
  6988  0020D6  6EBA               	movwf	4026,c	;volatile
  6989  0020D8  90D8               	bcf	status,0,c
  6990  0020DA  322D               	rrcf	i2PWM_R_setPWM2@val+1,f,c
  6991  0020DC  322C               	rrcf	i2PWM_R_setPWM2@val,f,c
  6992                           
  6993                           ;pwm_r.c: 13: CCP2CONbits.DC2B1 = (val & 0x01); val >>= 1;
  6994  0020DE  C02C  F02E         	movff	i2PWM_R_setPWM2@val,??i2_PWM_R_setPWM2
  6995  0020E2  0E01               	movlw	1
  6996  0020E4  162E               	andwf	??i2_PWM_R_setPWM2,f,c
  6997  0020E6  3A2E               	swapf	??i2_PWM_R_setPWM2,f,c
  6998  0020E8  462E               	rlncf	??i2_PWM_R_setPWM2,f,c
  6999  0020EA  50BA               	movf	4026,w,c	;volatile
  7000  0020EC  182E               	xorwf	??i2_PWM_R_setPWM2,w,c
  7001  0020EE  0BDF               	andlw	-33
  7002  0020F0  182E               	xorwf	??i2_PWM_R_setPWM2,w,c
  7003  0020F2  6EBA               	movwf	4026,c	;volatile
  7004  0020F4  90D8               	bcf	status,0,c
  7005  0020F6  322D               	rrcf	i2PWM_R_setPWM2@val+1,f,c
  7006  0020F8  322C               	rrcf	i2PWM_R_setPWM2@val,f,c
  7007                           
  7008                           ;pwm_r.c: 14: CCPR2L = val;
  7009  0020FA  C02C  FFBB         	movff	i2PWM_R_setPWM2@val,4027	;volatile
  7010  0020FE  0012               	return		;funcret
  7011  002100                     __end_ofi2_PWM_R_setPWM2:
  7012                           	opt stack 0
  7013                           pclatu	equ	0xFFB
  7014                           pclath	equ	0xFFA
  7015                           tblptru	equ	0xFF8
  7016                           tblptrh	equ	0xFF7
  7017                           tblptrl	equ	0xFF6
  7018                           tablat	equ	0xFF5
  7019                           prodh	equ	0xFF4
  7020                           prodl	equ	0xFF3
  7021                           intcon	equ	0xFF2
  7022                           indf0	equ	0xFEF
  7023                           postinc0	equ	0xFEE
  7024                           fsr0h	equ	0xFEA
  7025                           fsr0l	equ	0xFE9
  7026                           wreg	equ	0xFE8
  7027                           indf1	equ	0xFE7
  7028                           fsr1h	equ	0xFE2
  7029                           fsr1l	equ	0xFE1
  7030                           indf2	equ	0xFDF
  7031                           postinc2	equ	0xFDE
  7032                           postdec2	equ	0xFDD
  7033                           plusw2	equ	0xFDB
  7034                           fsr2h	equ	0xFDA
  7035                           fsr2l	equ	0xFD9
  7036                           status	equ	0xFD8
  7037                           
  7038 ;; *************** function i2_PWM_R_setPWM1 *****************
  7039 ;; Defined at:
  7040 ;;		line 5 in file "../../../../_ELECTRONIC/inc/pwm_r.c"
  7041 ;; Parameters:    Size  Location     Type
  7042 ;;  val             2    0[COMRAM] unsigned int 
  7043 ;; Auto vars:     Size  Location     Type
  7044 ;;		None
  7045 ;; Return value:  Size  Location     Type
  7046 ;;                  1    wreg      void 
  7047 ;; Registers used:
  7048 ;;		wreg, status,2, status,0
  7049 ;; Tracked objects:
  7050 ;;		On entry : 0/0
  7051 ;;		On exit  : 0/0
  7052 ;;		Unchanged: 0/0
  7053 ;; Data sizes:     COMRAM   BANK0   BANK1   BANK2   BANK3   BANK4   BANK5   BANK6   BANK7
  7054 ;;      Params:         2       0       0       0       0       0       0       0       0
  7055 ;;      Locals:         0       0       0       0       0       0       0       0       0
  7056 ;;      Temps:          1       0       0       0       0       0       0       0       0
  7057 ;;      Totals:         3       0       0       0       0       0       0       0       0
  7058 ;;Total ram usage:        3 bytes
  7059 ;; Hardware stack levels used:    1
  7060 ;; This function calls:
  7061 ;;		Nothing
  7062 ;; This function is called by:
  7063 ;;		i2_PWM_R_OpenPWM
  7064 ;; This function uses a non-reentrant model
  7065 ;;
  7066                           
  7067                           	psect	text36
  7068  002100                     __ptext36:
  7069                           	opt stack 0
  7070  002100                     i2_PWM_R_setPWM1:
  7071                           	opt stack 22
  7072                           
  7073                           ;pwm_r.c: 6: CCP1CONbits.DC1B0 = (val & 0x01); val >>= 1;
  7074                           
  7075                           ;incstack = 0
  7076  002100  C02C  F02E         	movff	i2PWM_R_setPWM1@val,??i2_PWM_R_setPWM1
  7077  002104  0E01               	movlw	1
  7078  002106  162E               	andwf	??i2_PWM_R_setPWM1,f,c
  7079  002108  3A2E               	swapf	??i2_PWM_R_setPWM1,f,c
  7080  00210A  50BD               	movf	4029,w,c	;volatile
  7081  00210C  182E               	xorwf	??i2_PWM_R_setPWM1,w,c
  7082  00210E  0BEF               	andlw	-17
  7083  002110  182E               	xorwf	??i2_PWM_R_setPWM1,w,c
  7084  002112  6EBD               	movwf	4029,c	;volatile
  7085  002114  90D8               	bcf	status,0,c
  7086  002116  322D               	rrcf	i2PWM_R_setPWM1@val+1,f,c
  7087  002118  322C               	rrcf	i2PWM_R_setPWM1@val,f,c
  7088                           
  7089                           ;pwm_r.c: 7: CCP1CONbits.DC1B1 = (val & 0x01); val >>= 1;
  7090  00211A  C02C  F02E         	movff	i2PWM_R_setPWM1@val,??i2_PWM_R_setPWM1
  7091  00211E  0E01               	movlw	1
  7092  002120  162E               	andwf	??i2_PWM_R_setPWM1,f,c
  7093  002122  3A2E               	swapf	??i2_PWM_R_setPWM1,f,c
  7094  002124  462E               	rlncf	??i2_PWM_R_setPWM1,f,c
  7095  002126  50BD               	movf	4029,w,c	;volatile
  7096  002128  182E               	xorwf	??i2_PWM_R_setPWM1,w,c
  7097  00212A  0BDF               	andlw	-33
  7098  00212C  182E               	xorwf	??i2_PWM_R_setPWM1,w,c
  7099  00212E  6EBD               	movwf	4029,c	;volatile
  7100  002130  90D8               	bcf	status,0,c
  7101  002132  322D               	rrcf	i2PWM_R_setPWM1@val+1,f,c
  7102  002134  322C               	rrcf	i2PWM_R_setPWM1@val,f,c
  7103                           
  7104                           ;pwm_r.c: 8: CCPR1L = val;
  7105  002136  C02C  FFBE         	movff	i2PWM_R_setPWM1@val,4030	;volatile
  7106  00213A  0012               	return		;funcret
  7107  00213C                     __end_ofi2_PWM_R_setPWM1:
  7108                           	opt stack 0
  7109                           pclatu	equ	0xFFB
  7110                           pclath	equ	0xFFA
  7111                           tblptru	equ	0xFF8
  7112                           tblptrh	equ	0xFF7
  7113                           tblptrl	equ	0xFF6
  7114                           tablat	equ	0xFF5
  7115                           prodh	equ	0xFF4
  7116                           prodl	equ	0xFF3
  7117                           intcon	equ	0xFF2
  7118                           indf0	equ	0xFEF
  7119                           postinc0	equ	0xFEE
  7120                           fsr0h	equ	0xFEA
  7121                           fsr0l	equ	0xFE9
  7122                           wreg	equ	0xFE8
  7123                           indf1	equ	0xFE7
  7124                           fsr1h	equ	0xFE2
  7125                           fsr1l	equ	0xFE1
  7126                           indf2	equ	0xFDF
  7127                           postinc2	equ	0xFDE
  7128                           postdec2	equ	0xFDD
  7129                           plusw2	equ	0xFDB
  7130                           fsr2h	equ	0xFDA
  7131                           fsr2l	equ	0xFD9
  7132                           status	equ	0xFD8
  7133                           
  7134 ;; *************** function _USBCheckHIDRequest *****************
  7135 ;; Defined at:
  7136 ;;		line 153 in file "../src/master/inc/src/usb_device_hid.c"
  7137 ;; Parameters:    Size  Location     Type
  7138 ;;		None
  7139 ;; Auto vars:     Size  Location     Type
  7140 ;;		None
  7141 ;; Return value:  Size  Location     Type
  7142 ;;                  1    wreg      void 
  7143 ;; Registers used:
  7144 ;;		wreg, status,2, status,0
  7145 ;; Tracked objects:
  7146 ;;		On entry : 0/0
  7147 ;;		On exit  : 0/0
  7148 ;;		Unchanged: 0/0
  7149 ;; Data sizes:     COMRAM   BANK0   BANK1   BANK2   BANK3   BANK4   BANK5   BANK6   BANK7
  7150 ;;      Params:         0       0       0       0       0       0       0       0       0
  7151 ;;      Locals:         0       0       0       0       0       0       0       0       0
  7152 ;;      Temps:          0       0       0       0       0       0       0       0       0
  7153 ;;      Totals:         0       0       0       0       0       0       0       0       0
  7154 ;;Total ram usage:        0 bytes
  7155 ;; Hardware stack levels used:    1
  7156 ;; This function calls:
  7157 ;;		Nothing
  7158 ;; This function is called by:
  7159 ;;		_USER_USB_CALLBACK_EVENT_HANDLER
  7160 ;; This function uses a non-reentrant model
  7161 ;;
  7162                           
  7163                           	psect	text37
  7164  0013E0                     __ptext37:
  7165                           	opt stack 0
  7166  0013E0                     _USBCheckHIDRequest:
  7167                           	opt stack 24
  7168                           
  7169                           ;usb_device_hid.c: 155: if(SetupPkt.Recipient != (0x01)) return;
  7170                           
  7171                           ;incstack = 0
  7172  0013E0  0104               	movlb	4	; () banked
  7173  0013E2  5120               	movf	32,w,b	;volatile
  7174  0013E4  0B1F               	andlw	31
  7175  0013E6  06E8               	decf	wreg,f,c
  7176  0013E8  A4D8               	btfss	status,2,c
  7177  0013EA  0012               	return	
  7178                           
  7179                           ; BSR set to: 4
  7180                           ;usb_device_hid.c: 156: if(SetupPkt.bIntfID != 0x00) return;
  7181                           
  7182                           ; BSR set to: 4
  7183                           
  7184                           ; BSR set to: 4
  7185  0013EC  0104               	movlb	4	; () banked
  7186  0013EE  5124               	movf	36,w,b	;volatile
  7187  0013F0  A4D8               	btfss	status,2,c
  7188  0013F2  0012               	return	
  7189                           
  7190                           ; BSR set to: 4
  7191                           ;usb_device_hid.c: 163: if(SetupPkt.bRequest == 6)
  7192                           
  7193                           ; BSR set to: 4
  7194                           
  7195                           ; BSR set to: 4
  7196  0013F4  0E06               	movlw	6
  7197  0013F6  0104               	movlb	4	; () banked
  7198  0013F8  1921               	xorwf	33,w,b	;volatile
  7199  0013FA  B4D8               	btfsc	status,2,c
  7200  0013FC  D018               	goto	i2l2939
  7201  0013FE  D020               	goto	i2l2941
  7202  001400                     i2l2923:
  7203                           
  7204                           ; BSR set to: 4
  7205                           ;usb_device_hid.c: 168: if(USBActiveConfiguration == 1)
  7206  001400  0429               	decf	_USBActiveConfiguration,w,c	;volatile
  7207  001402  A4D8               	btfss	status,2,c
  7208  001404  D01D               	goto	i2l2941
  7209                           
  7210                           ; BSR set to: 4
  7211                           ;usb_device_hid.c: 169: {
  7212                           ;usb_device_hid.c: 170: { inPipes[0].pSrc.bRom = (const uint8_t*)&configDescriptor1 + 18
      +                          ; inPipes[0].wCount.Val = sizeof(USB_HID_DSC)+3; inPipes[0].info.Val = 0x40 | 0x80 | 0x0
      +                          0; };
  7213  001406  0E7D               	movlw	low (_configDescriptor1+18)
  7214  001408  6E09               	movwf	_inPipes,c	;volatile
  7215  00140A  0E08               	movlw	high (_configDescriptor1+18)
  7216  00140C  6E0A               	movwf	_inPipes+1,c	;volatile
  7217                           
  7218                           ; BSR set to: 4
  7219  00140E  0E00               	movlw	0
  7220  001410  6E0E               	movwf	_inPipes+5,c	;volatile
  7221  001412  0E09               	movlw	9
  7222  001414  D00A               	goto	L10
  7223  001416                     i2l2929:
  7224                           
  7225                           ; BSR set to: 4
  7226  001416  0EC0               	movlw	192
  7227  001418  6E0C               	movwf	_inPipes+3,c	;volatile
  7228                           
  7229                           ; BSR set to: 4
  7230                           ;usb_device_hid.c: 174: }
  7231                           ;usb_device_hid.c: 175: break;
  7232  00141A  D012               	goto	i2l2941
  7233  00141C                     i2l2931:
  7234                           
  7235                           ; BSR set to: 4
  7236                           ;usb_device_hid.c: 178: {
  7237                           ;usb_device_hid.c: 179: { inPipes[0].pSrc.bRom = (const uint8_t*)&hid_rpt01; inPipes[0].
      +                          wCount.Val = 29; inPipes[0].info.Val = 0x40 | 0x80 | 0x00; };
  7238  00141C  0E94               	movlw	low _hid_rpt01
  7239  00141E  6E09               	movwf	_inPipes,c	;volatile
  7240  001420  0E08               	movlw	high _hid_rpt01
  7241  001422  6E0A               	movwf	_inPipes+1,c	;volatile
  7242                           
  7243                           ; BSR set to: 4
  7244  001424  0E00               	movlw	0
  7245  001426  6E0E               	movwf	_inPipes+5,c	;volatile
  7246  001428  0E1D               	movlw	29
  7247  00142A                     L10:
  7248  00142A  6E0D               	movwf	_inPipes+4,c	;volatile
  7249  00142C  D7F4               	goto	i2l2929
  7250  00142E                     i2l2939:
  7251                           
  7252                           ; BSR set to: 4
  7253  00142E  0104               	movlb	4	; () banked
  7254  001430  5123               	movf	35,w,b	;volatile
  7255                           
  7256                           ; Switch size 1, requested type "space"
  7257                           ; Number of cases is 3, Range of values is 33 to 35
  7258                           ; switch strategies available:
  7259                           ; Name         Instructions Cycles
  7260                           ; simple_byte           10     6 (average)
  7261                           ;	Chosen strategy is simple_byte
  7262  001432  0A21               	xorlw	33	; case 33
  7263  001434  B4D8               	btfsc	status,2,c
  7264  001436  D7E4               	goto	i2l2923
  7265  001438  0A03               	xorlw	3	; case 34
  7266  00143A  B4D8               	btfsc	status,2,c
  7267  00143C  D7EF               	goto	i2l2931
  7268  00143E  0A01               	xorlw	1	; case 35
  7269  001440                     i2l2941:
  7270                           
  7271                           ; BSR set to: 4
  7272                           ;usb_device_hid.c: 199: }
  7273                           ;usb_device_hid.c: 201: if(SetupPkt.RequestType != (0x20>>5))
  7274  001440  0104               	movlb	4	; () banked
  7275  001442  3920               	swapf	32,w,b	;volatile
  7276  001444  32E8               	rrcf	wreg,f,c
  7277  001446  0B03               	andlw	3
  7278  001448  06E8               	decf	wreg,f,c
  7279  00144A  A4D8               	btfss	status,2,c
  7280  00144C  0012               	return	
  7281  00144E  D020               	goto	i2l2967
  7282  001450                     i2l2945:
  7283                           
  7284                           ; BSR set to: 4
  7285                           ;usb_device_hid.c: 219: { inPipes[0].pSrc.bRam = (uint8_t*)&idle_rate; inPipes[0].wCount
      +                          .Val = 1; inPipes[0].info.Val = 0x40 | 0x80 | 0x01; };
  7286  001450  0E7B               	movlw	low _idle_rate
  7287  001452  6E09               	movwf	_inPipes,c	;volatile
  7288  001454  0E00               	movlw	high _idle_rate
  7289  001456  6E0A               	movwf	_inPipes+1,c	;volatile
  7290                           
  7291                           ; BSR set to: 4
  7292  001458  0E00               	movlw	0
  7293  00145A  6E0E               	movwf	_inPipes+5,c	;volatile
  7294  00145C  0E01               	movlw	1
  7295  00145E  6E0D               	movwf	_inPipes+4,c	;volatile
  7296                           
  7297                           ; BSR set to: 4
  7298  001460  0EC1               	movlw	193
  7299  001462  6E0C               	movwf	_inPipes+3,c	;volatile
  7300                           
  7301                           ;usb_device_hid.c: 223: break;
  7302  001464  0012               	return	
  7303  001466                     i2l2951:
  7304                           
  7305                           ; BSR set to: 4
  7306                           ;usb_device_hid.c: 225: inPipes[0].info.Val = 0x00 | 0x80;
  7307  001466  0E80               	movlw	128
  7308  001468  6E0C               	movwf	_inPipes+3,c	;volatile
  7309                           
  7310                           ; BSR set to: 4
  7311                           ;usb_device_hid.c: 226: idle_rate = ((USB_SETUP_SET_IDLE_RATE*)&SetupPkt)->duration;
  7312  00146A  C423 F07B          	movff	1059,_idle_rate
  7313                           
  7314                           ;usb_device_hid.c: 227: ;
  7315                           ;usb_device_hid.c: 228: break;
  7316  00146E  0012               	return	
  7317  001470                     i2l2955:
  7318                           
  7319                           ; BSR set to: 4
  7320                           ;usb_device_hid.c: 230: { inPipes[0].pSrc.bRam = (uint8_t*)&active_protocol; inPipes[0].
      +                          wCount.Val = 1; inPipes[0].info.Val = 0x00 | 0x80 | 0x01; };
  7321  001470  0E7A               	movlw	low _active_protocol
  7322  001472  6E09               	movwf	_inPipes,c	;volatile
  7323  001474  0E00               	movlw	high _active_protocol
  7324  001476  6E0A               	movwf	_inPipes+1,c	;volatile
  7325                           
  7326                           ; BSR set to: 4
  7327  001478  0E00               	movlw	0
  7328  00147A  6E0E               	movwf	_inPipes+5,c	;volatile
  7329  00147C  0E01               	movlw	1
  7330  00147E  6E0D               	movwf	_inPipes+4,c	;volatile
  7331                           
  7332                           ; BSR set to: 4
  7333  001480  0E81               	movlw	129
  7334  001482  6E0C               	movwf	_inPipes+3,c	;volatile
  7335                           
  7336                           ;usb_device_hid.c: 234: break;
  7337  001484  0012               	return	
  7338  001486                     i2l2961:
  7339                           
  7340                           ; BSR set to: 4
  7341                           ;usb_device_hid.c: 236: inPipes[0].info.Val = 0x00 | 0x80;
  7342  001486  0E80               	movlw	128
  7343  001488  6E0C               	movwf	_inPipes+3,c	;volatile
  7344                           
  7345                           ; BSR set to: 4
  7346                           ;usb_device_hid.c: 237: active_protocol = ((USB_SETUP_SET_PROTOCOL*)&SetupPkt)->protocol
      +                          ;
  7347  00148A  C422 F07A          	movff	1058,_active_protocol
  7348                           
  7349                           ; BSR set to: 4
  7350                           ;usb_device_hid.c: 239: }
  7351                           
  7352                           ;usb_device_hid.c: 238: break;
  7353  00148E  0012               	return	
  7354  001490                     i2l2967:
  7355                           
  7356                           ; BSR set to: 4
  7357  001490  0104               	movlb	4	; () banked
  7358  001492  5121               	movf	33,w,b	;volatile
  7359                           
  7360                           ; Switch size 1, requested type "space"
  7361                           ; Number of cases is 6, Range of values is 1 to 11
  7362                           ; switch strategies available:
  7363                           ; Name         Instructions Cycles
  7364                           ; simple_byte           19    10 (average)
  7365                           ;	Chosen strategy is simple_byte
  7366  001494  0A01               	xorlw	1	; case 1
  7367  001496  B4D8               	btfsc	status,2,c
  7368  001498  0012               	return	
  7369  00149A  0A03               	xorlw	3	; case 2
  7370  00149C  B4D8               	btfsc	status,2,c
  7371  00149E  D7D8               	goto	i2l2945
  7372  0014A0  0A01               	xorlw	1	; case 3
  7373  0014A2  B4D8               	btfsc	status,2,c
  7374  0014A4  D7E5               	goto	i2l2955
  7375  0014A6  0A0A               	xorlw	10	; case 9
  7376  0014A8  B4D8               	btfsc	status,2,c
  7377  0014AA  0012               	return	
  7378  0014AC  0A03               	xorlw	3	; case 10
  7379  0014AE  B4D8               	btfsc	status,2,c
  7380  0014B0  D7DA               	goto	i2l2951
  7381  0014B2  0A01               	xorlw	1	; case 11
  7382  0014B4  A4D8               	btfss	status,2,c
  7383  0014B6  0012               	return	
  7384  0014B8  D7E6               	goto	i2l2961
  7385  0014BA                     __end_of_USBCheckHIDRequest:
  7386                           	opt stack 0
  7387                           pclatu	equ	0xFFB
  7388                           pclath	equ	0xFFA
  7389                           tblptru	equ	0xFF8
  7390                           tblptrh	equ	0xFF7
  7391                           tblptrl	equ	0xFF6
  7392                           tablat	equ	0xFF5
  7393                           prodh	equ	0xFF4
  7394                           prodl	equ	0xFF3
  7395                           intcon	equ	0xFF2
  7396                           indf0	equ	0xFEF
  7397                           postinc0	equ	0xFEE
  7398                           fsr0h	equ	0xFEA
  7399                           fsr0l	equ	0xFE9
  7400                           wreg	equ	0xFE8
  7401                           indf1	equ	0xFE7
  7402                           fsr1h	equ	0xFE2
  7403                           fsr1l	equ	0xFE1
  7404                           indf2	equ	0xFDF
  7405                           postinc2	equ	0xFDE
  7406                           postdec2	equ	0xFDD
  7407                           plusw2	equ	0xFDB
  7408                           fsr2h	equ	0xFDA
  7409                           fsr2l	equ	0xFD9
  7410                           status	equ	0xFD8
  7411                           
  7412 ;; *************** function _APP_DeviceCustomHIDInitialize *****************
  7413 ;; Defined at:
  7414 ;;		line 49 in file "../src/master/app_master.c"
  7415 ;; Parameters:    Size  Location     Type
  7416 ;;		None
  7417 ;; Auto vars:     Size  Location     Type
  7418 ;;		None
  7419 ;; Return value:  Size  Location     Type
  7420 ;;                  1    wreg      void 
  7421 ;; Registers used:
  7422 ;;		wreg, fsr2l, fsr2h, status,2, status,0, prodl, prodh, cstack
  7423 ;; Tracked objects:
  7424 ;;		On entry : 0/0
  7425 ;;		On exit  : 0/0
  7426 ;;		Unchanged: 0/0
  7427 ;; Data sizes:     COMRAM   BANK0   BANK1   BANK2   BANK3   BANK4   BANK5   BANK6   BANK7
  7428 ;;      Params:         0       0       0       0       0       0       0       0       0
  7429 ;;      Locals:         0       0       0       0       0       0       0       0       0
  7430 ;;      Temps:          0       0       0       0       0       0       0       0       0
  7431 ;;      Totals:         0       0       0       0       0       0       0       0       0
  7432 ;;Total ram usage:        0 bytes
  7433 ;; Hardware stack levels used:    1
  7434 ;; Hardware stack levels required when called:    2
  7435 ;; This function calls:
  7436 ;;		_USBEnableEndpoint
  7437 ;;		i2_USBTransferOnePacket
  7438 ;; This function is called by:
  7439 ;;		_USER_USB_CALLBACK_EVENT_HANDLER
  7440 ;; This function uses a non-reentrant model
  7441 ;;
  7442                           
  7443                           	psect	text38
  7444  002178                     __ptext38:
  7445                           	opt stack 0
  7446  002178                     _APP_DeviceCustomHIDInitialize:
  7447                           	opt stack 22
  7448                           
  7449                           ;app_master.c: 51: USBInHandle = 0;
  7450                           
  7451                           ; BSR set to: 4
  7452                           ;incstack = 0
  7453  002178  0E00               	movlw	0
  7454  00217A  0100               	movlb	0	; () banked
  7455  00217C  6F68               	movwf	_USBInHandle& (0+255),b
  7456  00217E  0E00               	movlw	0
  7457  002180  0100               	movlb	0	; () banked
  7458  002182  6F69               	movwf	(_USBInHandle+1)& (0+255),b
  7459                           
  7460                           ; BSR set to: 0
  7461                           ;app_master.c: 54: USBEnableEndpoint(1, 0x02|0x04|0x10|0x08);
  7462  002184  0E1E               	movlw	30
  7463  002186  6E34               	movwf	USBEnableEndpoint@options,c
  7464  002188  0E01               	movlw	1
  7465  00218A  EC9E  F010         	call	_USBEnableEndpoint
  7466                           
  7467                           ;app_master.c: 57: USBOutHandle = (volatile void*)USBTransferOnePacket(1,0,(uint8_t*)&Re
      +                          ceivedDataBuffer,64);
  7468  00218E  0E00               	movlw	0
  7469  002190  6E2C               	movwf	i2USBTransferOnePacket@dir,c
  7470  002192  0E00               	movlw	0
  7471  002194  6E2D               	movwf	i2USBTransferOnePacket@data,c
  7472  002196  0E05               	movlw	5
  7473  002198  6E2E               	movwf	i2USBTransferOnePacket@data+1,c
  7474  00219A  0E40               	movlw	64
  7475  00219C  6E2F               	movwf	i2USBTransferOnePacket@len,c
  7476  00219E  0E01               	movlw	1
  7477  0021A0  ECFA  F00B         	call	i2_USBTransferOnePacket
  7478  0021A4  C02C  F06A         	movff	?i2_USBTransferOnePacket,_USBOutHandle
  7479  0021A8  C02D  F06B         	movff	?i2_USBTransferOnePacket+1,_USBOutHandle+1
  7480  0021AC  0012               	return		;funcret
  7481  0021AE                     __end_of_APP_DeviceCustomHIDInitialize:
  7482                           	opt stack 0
  7483                           pclatu	equ	0xFFB
  7484                           pclath	equ	0xFFA
  7485                           tblptru	equ	0xFF8
  7486                           tblptrh	equ	0xFF7
  7487                           tblptrl	equ	0xFF6
  7488                           tablat	equ	0xFF5
  7489                           prodh	equ	0xFF4
  7490                           prodl	equ	0xFF3
  7491                           intcon	equ	0xFF2
  7492                           indf0	equ	0xFEF
  7493                           postinc0	equ	0xFEE
  7494                           fsr0h	equ	0xFEA
  7495                           fsr0l	equ	0xFE9
  7496                           wreg	equ	0xFE8
  7497                           indf1	equ	0xFE7
  7498                           fsr1h	equ	0xFE2
  7499                           fsr1l	equ	0xFE1
  7500                           indf2	equ	0xFDF
  7501                           postinc2	equ	0xFDE
  7502                           postdec2	equ	0xFDD
  7503                           plusw2	equ	0xFDB
  7504                           fsr2h	equ	0xFDA
  7505                           fsr2l	equ	0xFD9
  7506                           status	equ	0xFD8
  7507                           
  7508 ;; *************** function i2_USBTransferOnePacket *****************
  7509 ;; Defined at:
  7510 ;;		line 1013 in file "../src/master/inc/src/usb_device.c"
  7511 ;; Parameters:    Size  Location     Type
  7512 ;;  ep              1    wreg     unsigned char 
  7513 ;;  dir             1    0[COMRAM] unsigned char 
  7514 ;;  data            2    1[COMRAM] PTR unsigned char 
  7515 ;;		 -> ReceivedDataBuffer(64), 
  7516 ;;  len             1    3[COMRAM] unsigned char 
  7517 ;; Auto vars:     Size  Location     Type
  7518 ;;  ep              1    4[COMRAM] unsigned char 
  7519 ;;  USBTransferO    2    5[COMRAM] PTR volatile struct __BD
  7520 ;;		 -> NULL(0), BDT(32), 
  7521 ;; Return value:  Size  Location     Type
  7522 ;;                  2    0[COMRAM] PTR void 
  7523 ;; Registers used:
  7524 ;;		wreg, fsr2l, fsr2h, status,2, status,0, prodl, prodh
  7525 ;; Tracked objects:
  7526 ;;		On entry : 0/0
  7527 ;;		On exit  : 0/0
  7528 ;;		Unchanged: 0/0
  7529 ;; Data sizes:     COMRAM   BANK0   BANK1   BANK2   BANK3   BANK4   BANK5   BANK6   BANK7
  7530 ;;      Params:         4       0       0       0       0       0       0       0       0
  7531 ;;      Locals:         3       0       0       0       0       0       0       0       0
  7532 ;;      Temps:          0       0       0       0       0       0       0       0       0
  7533 ;;      Totals:         7       0       0       0       0       0       0       0       0
  7534 ;;Total ram usage:        7 bytes
  7535 ;; Hardware stack levels used:    1
  7536 ;; This function calls:
  7537 ;;		Nothing
  7538 ;; This function is called by:
  7539 ;;		_APP_DeviceCustomHIDInitialize
  7540 ;; This function uses a non-reentrant model
  7541 ;;
  7542                           
  7543                           	psect	text39
  7544  0017F4                     __ptext39:
  7545                           	opt stack 0
  7546  0017F4                     i2_USBTransferOnePacket:
  7547                           	opt stack 23
  7548                           
  7549                           ;incstack = 0
  7550                           ;i2USBTransferOnePacket@ep stored from wreg
  7551  0017F4  6E30               	movwf	i2USBTransferOnePacket@ep,c
  7552                           
  7553                           ;usb_device.c: 1015: volatile BDT_ENTRY* handle;
  7554                           ;usb_device.c: 1018: if(dir != 0)
  7555  0017F6  502C               	movf	i2USBTransferOnePacket@dir,w,c
  7556  0017F8  B4D8               	btfsc	status,2,c
  7557  0017FA  D007               	goto	i2l2839
  7558                           
  7559                           ;usb_device.c: 1019: {
  7560                           ;usb_device.c: 1021: handle = pBDTEntryIn[ep];
  7561  0017FC  5030               	movf	i2USBTransferOnePacket@ep,w,c
  7562  0017FE  0D02               	mullw	2
  7563  001800  0E0F               	movlw	low _pBDTEntryIn
  7564  001802  24F3               	addwf	prodl,w,c
  7565  001804  6ED9               	movwf	fsr2l,c
  7566  001806  0E00               	movlw	high _pBDTEntryIn
  7567  001808  D006               	goto	L11
  7568  00180A                     i2l2839:
  7569                           
  7570                           ;usb_device.c: 1023: else
  7571                           ;usb_device.c: 1024: {
  7572                           ;usb_device.c: 1026: handle = pBDTEntryOut[ep];
  7573  00180A  5030               	movf	i2USBTransferOnePacket@ep,w,c
  7574  00180C  0D02               	mullw	2
  7575  00180E  0E64               	movlw	low _pBDTEntryOut
  7576  001810  24F3               	addwf	prodl,w,c
  7577  001812  6ED9               	movwf	fsr2l,c
  7578  001814  0E00               	movlw	high _pBDTEntryOut
  7579  001816                     L11:
  7580  001816  20F4               	addwfc	prodh,w,c
  7581  001818  6EDA               	movwf	fsr2h,c
  7582  00181A  CFDE F031          	movff	postinc2,i2USBTransferOnePacket@handle
  7583  00181E  CFDD F032          	movff	postdec2,i2USBTransferOnePacket@handle+1
  7584                           
  7585                           ;usb_device.c: 1027: }
  7586                           ;usb_device.c: 1031: if(handle == 0)
  7587  001822  5031               	movf	i2USBTransferOnePacket@handle,w,c
  7588  001824  1032               	iorwf	i2USBTransferOnePacket@handle+1,w,c
  7589  001826  A4D8               	btfss	status,2,c
  7590  001828  D005               	goto	i2l2847
  7591                           
  7592                           ;usb_device.c: 1032: {
  7593                           ;usb_device.c: 1033: return 0;
  7594  00182A  0E00               	movlw	0
  7595  00182C  6E2C               	movwf	?i2_USBTransferOnePacket,c
  7596  00182E  0E00               	movlw	0
  7597  001830  6E2D               	movwf	?i2_USBTransferOnePacket+1,c
  7598  001832  0012               	return	
  7599  001834                     i2l2847:
  7600                           
  7601                           ;usb_device.c: 1034: }
  7602                           ;usb_device.c: 1047: handle->ADR = ((uint16_t)(data));
  7603  001834  EE20 F002          	lfsr	2,2
  7604  001838  5031               	movf	i2USBTransferOnePacket@handle,w,c
  7605  00183A  26D9               	addwf	fsr2l,f,c
  7606  00183C  5032               	movf	i2USBTransferOnePacket@handle+1,w,c
  7607  00183E  22DA               	addwfc	fsr2h,f,c
  7608  001840  C02D  FFDE         	movff	i2USBTransferOnePacket@data,postinc2
  7609  001844  C02E  FFDD         	movff	i2USBTransferOnePacket@data+1,postdec2
  7610                           
  7611                           ;usb_device.c: 1048: handle->CNT = len;
  7612  001848  EE20 F001          	lfsr	2,1
  7613  00184C  5031               	movf	i2USBTransferOnePacket@handle,w,c
  7614  00184E  26D9               	addwf	fsr2l,f,c
  7615  001850  5032               	movf	i2USBTransferOnePacket@handle+1,w,c
  7616  001852  22DA               	addwfc	fsr2h,f,c
  7617  001854  C02F  FFDF         	movff	i2USBTransferOnePacket@len,indf2
  7618                           
  7619                           ;usb_device.c: 1049: handle->STAT.Val &= 0x40;
  7620  001858  C031  FFD9         	movff	i2USBTransferOnePacket@handle,fsr2l
  7621  00185C  C032  FFDA         	movff	i2USBTransferOnePacket@handle+1,fsr2h
  7622  001860  0E40               	movlw	64
  7623  001862  16DF               	andwf	indf2,f,c
  7624                           
  7625                           ;usb_device.c: 1050: handle->STAT.Val |= (0x08 & 0x08);
  7626  001864  C031  FFD9         	movff	i2USBTransferOnePacket@handle,fsr2l
  7627  001868  C032  FFDA         	movff	i2USBTransferOnePacket@handle+1,fsr2h
  7628  00186C  0E00               	movlw	0
  7629  00186E  86DB               	bsf	plusw2,3,c
  7630                           
  7631                           ;usb_device.c: 1051: handle->STAT.Val |= 0x80;
  7632  001870  C031  FFD9         	movff	i2USBTransferOnePacket@handle,fsr2l
  7633  001874  C032  FFDA         	movff	i2USBTransferOnePacket@handle+1,fsr2h
  7634  001878  0E00               	movlw	0
  7635  00187A  8EDB               	bsf	plusw2,7,c
  7636                           
  7637                           ;usb_device.c: 1054: if(dir != 0)
  7638  00187C  502C               	movf	i2USBTransferOnePacket@dir,w,c
  7639  00187E  B4D8               	btfsc	status,2,c
  7640  001880  D007               	goto	i2l2859
  7641                           
  7642                           ;usb_device.c: 1055: {
  7643                           ;usb_device.c: 1057: {((uint8_t_VAL*)&pBDTEntryIn[ep])->Val ^= 0x0004;};
  7644  001882  5030               	movf	i2USBTransferOnePacket@ep,w,c
  7645  001884  0D02               	mullw	2
  7646  001886  0E0F               	movlw	low _pBDTEntryIn
  7647  001888  24F3               	addwf	prodl,w,c
  7648  00188A  6ED9               	movwf	fsr2l,c
  7649  00188C  0E00               	movlw	high _pBDTEntryIn
  7650  00188E  D006               	goto	L12
  7651  001890                     i2l2859:
  7652                           
  7653                           ;usb_device.c: 1059: else
  7654                           ;usb_device.c: 1060: {
  7655                           ;usb_device.c: 1062: {((uint8_t_VAL*)&pBDTEntryOut[ep])->Val ^= 0x0004;};
  7656  001890  5030               	movf	i2USBTransferOnePacket@ep,w,c
  7657  001892  0D02               	mullw	2
  7658  001894  0E64               	movlw	low _pBDTEntryOut
  7659  001896  24F3               	addwf	prodl,w,c
  7660  001898  6ED9               	movwf	fsr2l,c
  7661  00189A  0E00               	movlw	high _pBDTEntryOut
  7662  00189C                     L12:
  7663  00189C  20F4               	addwfc	prodh,w,c
  7664  00189E  6EDA               	movwf	fsr2h,c
  7665  0018A0  0E04               	movlw	4
  7666  0018A2  1ADF               	xorwf	indf2,f,c
  7667                           
  7668                           ;usb_device.c: 1063: }
  7669                           ;usb_device.c: 1064: return (void*)handle;
  7670  0018A4  C031  F02C         	movff	i2USBTransferOnePacket@handle,?i2_USBTransferOnePacket
  7671  0018A8  C032  F02D         	movff	i2USBTransferOnePacket@handle+1,?i2_USBTransferOnePacket+1
  7672  0018AC  0012               	return	
  7673  0018AE                     __end_ofi2_USBTransferOnePacket:
  7674                           	opt stack 0
  7675                           pclatu	equ	0xFFB
  7676                           pclath	equ	0xFFA
  7677                           tblptru	equ	0xFF8
  7678                           tblptrh	equ	0xFF7
  7679                           tblptrl	equ	0xFF6
  7680                           tablat	equ	0xFF5
  7681                           prodh	equ	0xFF4
  7682                           prodl	equ	0xFF3
  7683                           intcon	equ	0xFF2
  7684                           indf0	equ	0xFEF
  7685                           postinc0	equ	0xFEE
  7686                           fsr0h	equ	0xFEA
  7687                           fsr0l	equ	0xFE9
  7688                           wreg	equ	0xFE8
  7689                           indf1	equ	0xFE7
  7690                           fsr1h	equ	0xFE2
  7691                           fsr1l	equ	0xFE1
  7692                           indf2	equ	0xFDF
  7693                           postinc2	equ	0xFDE
  7694                           postdec2	equ	0xFDD
  7695                           plusw2	equ	0xFDB
  7696                           fsr2h	equ	0xFDA
  7697                           fsr2l	equ	0xFD9
  7698                           status	equ	0xFD8
  7699                           
  7700 ;; *************** function _USBEnableEndpoint *****************
  7701 ;; Defined at:
  7702 ;;		line 896 in file "../src/master/inc/src/usb_device.c"
  7703 ;; Parameters:    Size  Location     Type
  7704 ;;  ep              1    wreg     unsigned char 
  7705 ;;  options         1    8[COMRAM] unsigned char 
  7706 ;; Auto vars:     Size  Location     Type
  7707 ;;  ep              1   11[COMRAM] unsigned char 
  7708 ;;  p               2    9[COMRAM] PTR unsigned char 
  7709 ;;		 -> UEP0(1), 
  7710 ;; Return value:  Size  Location     Type
  7711 ;;                  1    wreg      void 
  7712 ;; Registers used:
  7713 ;;		wreg, fsr2l, fsr2h, status,2, status,0, prodl, prodh, cstack
  7714 ;; Tracked objects:
  7715 ;;		On entry : 0/0
  7716 ;;		On exit  : 0/0
  7717 ;;		Unchanged: 0/0
  7718 ;; Data sizes:     COMRAM   BANK0   BANK1   BANK2   BANK3   BANK4   BANK5   BANK6   BANK7
  7719 ;;      Params:         1       0       0       0       0       0       0       0       0
  7720 ;;      Locals:         3       0       0       0       0       0       0       0       0
  7721 ;;      Temps:          0       0       0       0       0       0       0       0       0
  7722 ;;      Totals:         4       0       0       0       0       0       0       0       0
  7723 ;;Total ram usage:        4 bytes
  7724 ;; Hardware stack levels used:    1
  7725 ;; Hardware stack levels required when called:    1
  7726 ;; This function calls:
  7727 ;;		_USBConfigureEndpoint
  7728 ;; This function is called by:
  7729 ;;		_APP_DeviceCustomHIDInitialize
  7730 ;; This function uses a non-reentrant model
  7731 ;;
  7732                           
  7733                           	psect	text40
  7734  00213C                     __ptext40:
  7735                           	opt stack 0
  7736  00213C                     _USBEnableEndpoint:
  7737                           	opt stack 22
  7738                           
  7739                           ;incstack = 0
  7740                           ;USBEnableEndpoint@ep stored from wreg
  7741  00213C  6E37               	movwf	USBEnableEndpoint@ep,c
  7742                           
  7743                           ;usb_device.c: 898: unsigned char* p;
  7744                           ;usb_device.c: 902: if(options & 0x04)
  7745  00213E  A434               	btfss	USBEnableEndpoint@options,2,c
  7746  002140  D005               	goto	i2l2827
  7747                           
  7748                           ;usb_device.c: 903: {
  7749                           ;usb_device.c: 904: USBConfigureEndpoint(ep, 0);
  7750  002142  0E00               	movlw	0
  7751  002144  6E2C               	movwf	USBConfigureEndpoint@direction,c
  7752  002146  5037               	movf	USBEnableEndpoint@ep,w,c
  7753  002148  EC53  F00D         	call	_USBConfigureEndpoint
  7754  00214C                     i2l2827:
  7755                           
  7756                           ;usb_device.c: 905: }
  7757                           ;usb_device.c: 906: if(options & 0x02)
  7758  00214C  A234               	btfss	USBEnableEndpoint@options,1,c
  7759  00214E  D005               	goto	i2l2831
  7760                           
  7761                           ;usb_device.c: 907: {
  7762                           ;usb_device.c: 908: USBConfigureEndpoint(ep, 1);
  7763  002150  0E01               	movlw	1
  7764  002152  6E2C               	movwf	USBConfigureEndpoint@direction,c
  7765  002154  5037               	movf	USBEnableEndpoint@ep,w,c
  7766  002156  EC53  F00D         	call	_USBConfigureEndpoint
  7767  00215A                     i2l2831:
  7768                           
  7769                           ;usb_device.c: 909: }
  7770                           ;usb_device.c: 917: p = (unsigned char*)(&UEP0+ep);
  7771  00215A  5037               	movf	USBEnableEndpoint@ep,w,c
  7772  00215C  0D01               	mullw	1
  7773  00215E  0E70               	movlw	112
  7774  002160  24F3               	addwf	prodl,w,c
  7775  002162  6E35               	movwf	USBEnableEndpoint@p,c
  7776  002164  0E0F               	movlw	15
  7777  002166  20F4               	addwfc	prodh,w,c
  7778  002168  6E36               	movwf	USBEnableEndpoint@p+1,c
  7779                           
  7780                           ;usb_device.c: 919: *p = options;
  7781  00216A  C035  FFD9         	movff	USBEnableEndpoint@p,fsr2l
  7782  00216E  C036  FFDA         	movff	USBEnableEndpoint@p+1,fsr2h
  7783  002172  C034  FFDF         	movff	USBEnableEndpoint@options,indf2
  7784  002176  0012               	return		;funcret
  7785  002178                     __end_of_USBEnableEndpoint:
  7786                           	opt stack 0
  7787                           pclatu	equ	0xFFB
  7788                           pclath	equ	0xFFA
  7789                           tblptru	equ	0xFF8
  7790                           tblptrh	equ	0xFF7
  7791                           tblptrl	equ	0xFF6
  7792                           tablat	equ	0xFF5
  7793                           prodh	equ	0xFF4
  7794                           prodl	equ	0xFF3
  7795                           intcon	equ	0xFF2
  7796                           indf0	equ	0xFEF
  7797                           postinc0	equ	0xFEE
  7798                           fsr0h	equ	0xFEA
  7799                           fsr0l	equ	0xFE9
  7800                           wreg	equ	0xFE8
  7801                           indf1	equ	0xFE7
  7802                           fsr1h	equ	0xFE2
  7803                           fsr1l	equ	0xFE1
  7804                           indf2	equ	0xFDF
  7805                           postinc2	equ	0xFDE
  7806                           postdec2	equ	0xFDD
  7807                           plusw2	equ	0xFDB
  7808                           fsr2h	equ	0xFDA
  7809                           fsr2l	equ	0xFD9
  7810                           status	equ	0xFD8
  7811                           
  7812 ;; *************** function _USBConfigureEndpoint *****************
  7813 ;; Defined at:
  7814 ;;		line 1561 in file "../src/master/inc/src/usb_device.c"
  7815 ;; Parameters:    Size  Location     Type
  7816 ;;  EPNum           1    wreg     unsigned char 
  7817 ;;  direction       1    0[COMRAM] unsigned char 
  7818 ;; Auto vars:     Size  Location     Type
  7819 ;;  EPNum           1    5[COMRAM] unsigned char 
  7820 ;;  handle          2    6[COMRAM] PTR volatile struct __BD
  7821 ;;		 -> BDT(32), 
  7822 ;; Return value:  Size  Location     Type
  7823 ;;                  1    wreg      void 
  7824 ;; Registers used:
  7825 ;;		wreg, fsr2l, fsr2h, status,2, status,0, prodl, prodh
  7826 ;; Tracked objects:
  7827 ;;		On entry : 0/0
  7828 ;;		On exit  : 0/0
  7829 ;;		Unchanged: 0/0
  7830 ;; Data sizes:     COMRAM   BANK0   BANK1   BANK2   BANK3   BANK4   BANK5   BANK6   BANK7
  7831 ;;      Params:         1       0       0       0       0       0       0       0       0
  7832 ;;      Locals:         3       0       0       0       0       0       0       0       0
  7833 ;;      Temps:          4       0       0       0       0       0       0       0       0
  7834 ;;      Totals:         8       0       0       0       0       0       0       0       0
  7835 ;;Total ram usage:        8 bytes
  7836 ;; Hardware stack levels used:    1
  7837 ;; This function calls:
  7838 ;;		Nothing
  7839 ;; This function is called by:
  7840 ;;		_USBEnableEndpoint
  7841 ;; This function uses a non-reentrant model
  7842 ;;
  7843                           
  7844                           	psect	text41
  7845  001AA6                     __ptext41:
  7846                           	opt stack 0
  7847  001AA6                     _USBConfigureEndpoint:
  7848                           	opt stack 22
  7849                           
  7850                           ;incstack = 0
  7851                           ;USBConfigureEndpoint@EPNum stored from wreg
  7852  001AA6  6E31               	movwf	USBConfigureEndpoint@EPNum,c
  7853                           
  7854                           ;usb_device.c: 1563: volatile BDT_ENTRY* handle;
  7855                           ;usb_device.c: 1567: handle = (volatile BDT_ENTRY*)&BDT[0];
  7856  001AA8  0E00               	movlw	0
  7857  001AAA  6E32               	movwf	USBConfigureEndpoint@handle,c
  7858  001AAC  0E04               	movlw	4
  7859  001AAE  6E33               	movwf	USBConfigureEndpoint@handle+1,c
  7860                           
  7861                           ;usb_device.c: 1568: handle += (4*EPNum+2*direction+0u);
  7862  001AB0  502C               	movf	USBConfigureEndpoint@direction,w,c
  7863  001AB2  6E2D               	movwf	??_USBConfigureEndpoint& (0+255),c
  7864  001AB4  6A2E               	clrf	(??_USBConfigureEndpoint+1)& (0+255),c
  7865  001AB6  90D8               	bcf	status,0,c
  7866  001AB8  362D               	rlcf	??_USBConfigureEndpoint,f,c
  7867  001ABA  362E               	rlcf	??_USBConfigureEndpoint+1,f,c
  7868  001ABC  5031               	movf	USBConfigureEndpoint@EPNum,w,c
  7869  001ABE  6E2F               	movwf	(??_USBConfigureEndpoint+2)& (0+255),c
  7870  001AC0  6A30               	clrf	(??_USBConfigureEndpoint+3)& (0+255),c
  7871  001AC2  90D8               	bcf	status,0,c
  7872  001AC4  362F               	rlcf	??_USBConfigureEndpoint+2,f,c
  7873  001AC6  3630               	rlcf	??_USBConfigureEndpoint+3,f,c
  7874  001AC8  90D8               	bcf	status,0,c
  7875  001ACA  362F               	rlcf	??_USBConfigureEndpoint+2,f,c
  7876  001ACC  3630               	rlcf	??_USBConfigureEndpoint+3,f,c
  7877  001ACE  502D               	movf	??_USBConfigureEndpoint,w,c
  7878  001AD0  262F               	addwf	??_USBConfigureEndpoint+2,f,c
  7879  001AD2  502E               	movf	??_USBConfigureEndpoint+1,w,c
  7880  001AD4  2230               	addwfc	??_USBConfigureEndpoint+3,f,c
  7881  001AD6  90D8               	bcf	status,0,c
  7882  001AD8  362F               	rlcf	??_USBConfigureEndpoint+2,f,c
  7883  001ADA  3630               	rlcf	??_USBConfigureEndpoint+3,f,c
  7884  001ADC  90D8               	bcf	status,0,c
  7885  001ADE  362F               	rlcf	??_USBConfigureEndpoint+2,f,c
  7886  001AE0  3630               	rlcf	??_USBConfigureEndpoint+3,f,c
  7887  001AE2  502F               	movf	??_USBConfigureEndpoint+2,w,c
  7888  001AE4  2632               	addwf	USBConfigureEndpoint@handle,f,c
  7889  001AE6  5030               	movf	??_USBConfigureEndpoint+3,w,c
  7890  001AE8  2233               	addwfc	USBConfigureEndpoint@handle+1,f,c
  7891                           
  7892                           ;usb_device.c: 1570: handle->STAT.UOWN = 0;
  7893  001AEA  C032  FFD9         	movff	USBConfigureEndpoint@handle,fsr2l
  7894  001AEE  C033  FFDA         	movff	USBConfigureEndpoint@handle+1,fsr2h
  7895  001AF2  9EDF               	bcf	indf2,7,c
  7896                           
  7897                           ;usb_device.c: 1575: if(direction == 0)
  7898  001AF4  502C               	movf	USBConfigureEndpoint@direction,w,c
  7899  001AF6  A4D8               	btfss	status,2,c
  7900  001AF8  D007               	goto	i2l2801
  7901                           
  7902                           ;usb_device.c: 1576: {
  7903                           ;usb_device.c: 1577: pBDTEntryOut[EPNum] = handle;
  7904  001AFA  5031               	movf	USBConfigureEndpoint@EPNum,w,c
  7905  001AFC  0D02               	mullw	2
  7906  001AFE  0E64               	movlw	low _pBDTEntryOut
  7907  001B00  24F3               	addwf	prodl,w,c
  7908  001B02  6ED9               	movwf	fsr2l,c
  7909  001B04  0E00               	movlw	high _pBDTEntryOut
  7910  001B06  D006               	goto	L13
  7911  001B08                     i2l2801:
  7912                           
  7913                           ;usb_device.c: 1579: else
  7914                           ;usb_device.c: 1580: {
  7915                           ;usb_device.c: 1581: pBDTEntryIn[EPNum] = handle;
  7916  001B08  5031               	movf	USBConfigureEndpoint@EPNum,w,c
  7917  001B0A  0D02               	mullw	2
  7918  001B0C  0E0F               	movlw	low _pBDTEntryIn
  7919  001B0E  24F3               	addwf	prodl,w,c
  7920  001B10  6ED9               	movwf	fsr2l,c
  7921  001B12  0E00               	movlw	high _pBDTEntryIn
  7922  001B14                     L13:
  7923  001B14  20F4               	addwfc	prodh,w,c
  7924  001B16  6EDA               	movwf	fsr2h,c
  7925  001B18  C032  FFDE         	movff	USBConfigureEndpoint@handle,postinc2
  7926  001B1C  C033  FFDD         	movff	USBConfigureEndpoint@handle+1,postdec2
  7927                           
  7928                           ;usb_device.c: 1582: }
  7929                           ;usb_device.c: 1585: handle->STAT.DTS = 0;
  7930  001B20  C032  FFD9         	movff	USBConfigureEndpoint@handle,fsr2l
  7931  001B24  C033  FFDA         	movff	USBConfigureEndpoint@handle+1,fsr2h
  7932  001B28  9CDF               	bcf	indf2,6,c
  7933                           
  7934                           ;usb_device.c: 1586: (handle+1)->STAT.DTS = 1;
  7935  001B2A  EE20 F004          	lfsr	2,4
  7936  001B2E  5032               	movf	USBConfigureEndpoint@handle,w,c
  7937  001B30  26D9               	addwf	fsr2l,f,c
  7938  001B32  5033               	movf	USBConfigureEndpoint@handle+1,w,c
  7939  001B34  22DA               	addwfc	fsr2h,f,c
  7940  001B36  8CDF               	bsf	indf2,6,c
  7941  001B38  0012               	return		;funcret
  7942  001B3A                     __end_of_USBConfigureEndpoint:
  7943                           	opt stack 0
  7944                           pclatu	equ	0xFFB
  7945                           pclath	equ	0xFFA
  7946                           tblptru	equ	0xFF8
  7947                           tblptrh	equ	0xFF7
  7948                           tblptrl	equ	0xFF6
  7949                           tablat	equ	0xFF5
  7950                           prodh	equ	0xFF4
  7951                           prodl	equ	0xFF3
  7952                           intcon	equ	0xFF2
  7953                           indf0	equ	0xFEF
  7954                           postinc0	equ	0xFEE
  7955                           fsr0h	equ	0xFEA
  7956                           fsr0l	equ	0xFE9
  7957                           wreg	equ	0xFE8
  7958                           indf1	equ	0xFE7
  7959                           fsr1h	equ	0xFE2
  7960                           fsr1l	equ	0xFE1
  7961                           indf2	equ	0xFDF
  7962                           postinc2	equ	0xFDE
  7963                           postdec2	equ	0xFDD
  7964                           plusw2	equ	0xFDB
  7965                           fsr2h	equ	0xFDA
  7966                           fsr2l	equ	0xFD9
  7967                           status	equ	0xFD8
  7968                           
  7969 ;; *************** function _USBCtrlTrfOutHandler *****************
  7970 ;; Defined at:
  7971 ;;		line 2555 in file "../src/master/inc/src/usb_device.c"
  7972 ;; Parameters:    Size  Location     Type
  7973 ;;		None
  7974 ;; Auto vars:     Size  Location     Type
  7975 ;;		None
  7976 ;; Return value:  Size  Location     Type
  7977 ;;                  1    wreg      void 
  7978 ;; Registers used:
  7979 ;;		wreg, fsr1l, fsr1h, fsr2l, fsr2h, status,2, status,0, prodl, prodh, cstack
  7980 ;; Tracked objects:
  7981 ;;		On entry : 0/0
  7982 ;;		On exit  : 0/0
  7983 ;;		Unchanged: 0/0
  7984 ;; Data sizes:     COMRAM   BANK0   BANK1   BANK2   BANK3   BANK4   BANK5   BANK6   BANK7
  7985 ;;      Params:         0       0       0       0       0       0       0       0       0
  7986 ;;      Locals:         0       0       0       0       0       0       0       0       0
  7987 ;;      Temps:          0       0       0       0       0       0       0       0       0
  7988 ;;      Totals:         0       0       0       0       0       0       0       0       0
  7989 ;;Total ram usage:        0 bytes
  7990 ;; Hardware stack levels used:    1
  7991 ;; Hardware stack levels required when called:    2
  7992 ;; This function calls:
  7993 ;;		_USBCtrlTrfRxService
  7994 ;; This function is called by:
  7995 ;;		_USBCtrlEPService
  7996 ;; This function uses a non-reentrant model
  7997 ;;
  7998                           
  7999                           	psect	text42
  8000  001EF8                     __ptext42:
  8001                           	opt stack 0
  8002  001EF8                     _USBCtrlTrfOutHandler:
  8003                           	opt stack 22
  8004                           
  8005                           ;usb_device.c: 2557: if(controlTransferState == 2)
  8006                           
  8007                           ;incstack = 0
  8008  001EF8  0E02               	movlw	2
  8009  001EFA  1826               	xorwf	_controlTransferState,w,c	;volatile
  8010  001EFC  A4D8               	btfss	status,2,c
  8011  001EFE  D003               	goto	i2l2049
  8012                           
  8013                           ;usb_device.c: 2558: {
  8014                           ;usb_device.c: 2559: USBCtrlTrfRxService();
  8015  001F00  EC17  F008         	call	_USBCtrlTrfRxService	;wreg free
  8016                           
  8017                           ;usb_device.c: 2560: }
  8018  001F04  0012               	return	
  8019  001F06                     i2l2049:
  8020                           
  8021                           ;usb_device.c: 2561: else
  8022                           ;usb_device.c: 2562: {
  8023                           ;usb_device.c: 2565: controlTransferState = 0;
  8024  001F06  0E00               	movlw	0
  8025  001F08  6E26               	movwf	_controlTransferState,c	;volatile
  8026                           
  8027                           ;usb_device.c: 2572: if(BothEP0OutUOWNsSet == 0)
  8028  001F0A  501B               	movf	_BothEP0OutUOWNsSet,w,c	;volatile
  8029  001F0C  A4D8               	btfss	status,2,c
  8030  001F0E  D01F               	goto	i2l2057
  8031                           
  8032                           ;usb_device.c: 2573: {
  8033                           ;usb_device.c: 2574: pBDTEntryEP0OutNext->CNT = 8;
  8034  001F10  EE20 F001          	lfsr	2,1
  8035  001F14  5019               	movf	_pBDTEntryEP0OutNext,w,c
  8036  001F16  26D9               	addwf	fsr2l,f,c
  8037  001F18  501A               	movf	_pBDTEntryEP0OutNext+1,w,c
  8038  001F1A  22DA               	addwfc	fsr2h,f,c
  8039  001F1C  0E08               	movlw	8
  8040  001F1E  6EDF               	movwf	indf2,c
  8041                           
  8042                           ;usb_device.c: 2575: pBDTEntryEP0OutNext->ADR = ((uint16_t)(&SetupPkt));
  8043  001F20  EE20 F002          	lfsr	2,2
  8044  001F24  5019               	movf	_pBDTEntryEP0OutNext,w,c
  8045  001F26  26D9               	addwf	fsr2l,f,c
  8046  001F28  501A               	movf	_pBDTEntryEP0OutNext+1,w,c
  8047  001F2A  22DA               	addwfc	fsr2h,f,c
  8048  001F2C  0E20               	movlw	32
  8049  001F2E  6EDE               	movwf	postinc2,c
  8050  001F30  0E04               	movlw	4
  8051  001F32  6EDD               	movwf	postdec2,c
  8052                           
  8053                           ;usb_device.c: 2576: pBDTEntryEP0OutNext->STAT.Val = 0x00|(0x08 & 0x08)|0x04;
  8054  001F34  C019  FFD9         	movff	_pBDTEntryEP0OutNext,fsr2l
  8055  001F38  C01A  FFDA         	movff	_pBDTEntryEP0OutNext+1,fsr2h
  8056  001F3C  0E0C               	movlw	12
  8057  001F3E  6EDF               	movwf	indf2,c
  8058                           
  8059                           ;usb_device.c: 2577: pBDTEntryEP0OutNext->STAT.Val |= 0x80;
  8060  001F40  C019  FFD9         	movff	_pBDTEntryEP0OutNext,fsr2l
  8061  001F44  C01A  FFDA         	movff	_pBDTEntryEP0OutNext+1,fsr2h
  8062  001F48  0E00               	movlw	0
  8063  001F4A  8EDB               	bsf	plusw2,7,c
  8064                           
  8065                           ;usb_device.c: 2578: }
  8066  001F4C  0012               	return	
  8067  001F4E                     i2l2057:
  8068                           
  8069                           ;usb_device.c: 2579: else
  8070                           ;usb_device.c: 2580: {
  8071                           ;usb_device.c: 2581: BothEP0OutUOWNsSet = 0;
  8072  001F4E  0E00               	movlw	0
  8073  001F50  6E1B               	movwf	_BothEP0OutUOWNsSet,c	;volatile
  8074  001F52  0012               	return	
  8075  001F54                     __end_of_USBCtrlTrfOutHandler:
  8076                           	opt stack 0
  8077                           pclatu	equ	0xFFB
  8078                           pclath	equ	0xFFA
  8079                           tblptru	equ	0xFF8
  8080                           tblptrh	equ	0xFF7
  8081                           tblptrl	equ	0xFF6
  8082                           tablat	equ	0xFF5
  8083                           prodh	equ	0xFF4
  8084                           prodl	equ	0xFF3
  8085                           intcon	equ	0xFF2
  8086                           indf0	equ	0xFEF
  8087                           postinc0	equ	0xFEE
  8088                           fsr0h	equ	0xFEA
  8089                           fsr0l	equ	0xFE9
  8090                           wreg	equ	0xFE8
  8091                           indf1	equ	0xFE7
  8092                           fsr1h	equ	0xFE2
  8093                           fsr1l	equ	0xFE1
  8094                           indf2	equ	0xFDF
  8095                           postinc2	equ	0xFDE
  8096                           postdec2	equ	0xFDD
  8097                           plusw2	equ	0xFDB
  8098                           fsr2h	equ	0xFDA
  8099                           fsr2l	equ	0xFD9
  8100                           status	equ	0xFD8
  8101                           
  8102 ;; *************** function _USBCtrlTrfRxService *****************
  8103 ;; Defined at:
  8104 ;;		line 1870 in file "../src/master/inc/src/usb_device.c"
  8105 ;; Parameters:    Size  Location     Type
  8106 ;;		None
  8107 ;; Auto vars:     Size  Location     Type
  8108 ;;  byteToRead      1    1[COMRAM] unsigned char 
  8109 ;;  i               1    0[COMRAM] unsigned char 
  8110 ;; Return value:  Size  Location     Type
  8111 ;;                  1    wreg      void 
  8112 ;; Registers used:
  8113 ;;		wreg, fsr1l, fsr1h, fsr2l, fsr2h, status,2, status,0, prodl, prodh, cstack
  8114 ;; Tracked objects:
  8115 ;;		On entry : 0/0
  8116 ;;		On exit  : 0/0
  8117 ;;		Unchanged: 0/0
  8118 ;; Data sizes:     COMRAM   BANK0   BANK1   BANK2   BANK3   BANK4   BANK5   BANK6   BANK7
  8119 ;;      Params:         0       0       0       0       0       0       0       0       0
  8120 ;;      Locals:         2       0       0       0       0       0       0       0       0
  8121 ;;      Temps:          0       0       0       0       0       0       0       0       0
  8122 ;;      Totals:         2       0       0       0       0       0       0       0       0
  8123 ;;Total ram usage:        2 bytes
  8124 ;; Hardware stack levels used:    1
  8125 ;; Hardware stack levels required when called:    1
  8126 ;; This function calls:
  8127 ;;		_USBCtrlEPAllowStatusStage
  8128 ;; This function is called by:
  8129 ;;		_USBCtrlTrfOutHandler
  8130 ;; This function uses a non-reentrant model
  8131 ;;
  8132                           
  8133                           	psect	text43
  8134  00102E                     __ptext43:
  8135                           	opt stack 0
  8136  00102E                     _USBCtrlTrfRxService:
  8137                           	opt stack 22
  8138                           
  8139                           ;usb_device.c: 1872: uint8_t byteToRead;
  8140                           ;usb_device.c: 1873: uint8_t i;
  8141                           ;usb_device.c: 1877: byteToRead = pBDTEntryEP0OutCurrent->CNT;
  8142                           
  8143                           ;incstack = 0
  8144  00102E  EE20 F001          	lfsr	2,1
  8145  001032  5017               	movf	_pBDTEntryEP0OutCurrent,w,c
  8146  001034  26D9               	addwf	fsr2l,f,c
  8147  001036  5018               	movf	_pBDTEntryEP0OutCurrent+1,w,c
  8148  001038  22DA               	addwfc	fsr2h,f,c
  8149  00103A  50DF               	movf	indf2,w,c
  8150  00103C  6E2D               	movwf	USBCtrlTrfRxService@byteToRead,c
  8151                           
  8152                           ;usb_device.c: 1883: if(byteToRead > outPipes[0].wCount.Val)
  8153  00103E  502D               	movf	USBCtrlTrfRxService@byteToRead,w,c
  8154  001040  5C05               	subwf	_outPipes+4,w,c	;volatile
  8155  001042  0E00               	movlw	0
  8156  001044  5806               	subwfb	_outPipes+5,w,c	;volatile
  8157  001046  A0D8               	btfss	status,0,c
  8158                           
  8159                           ;usb_device.c: 1884: {
  8160                           ;usb_device.c: 1885: byteToRead = outPipes[0].wCount.Val;
  8161  001048  C005  F02D         	movff	_outPipes+4,USBCtrlTrfRxService@byteToRead	;volatile
  8162                           
  8163                           ;usb_device.c: 1886: }
  8164                           ;usb_device.c: 1888: outPipes[0].wCount.Val -= byteToRead;
  8165  00104C  502D               	movf	USBCtrlTrfRxService@byteToRead,w,c
  8166  00104E  5E05               	subwf	_outPipes+4,f,c	;volatile
  8167  001050  0E00               	movlw	0
  8168  001052  5A06               	subwfb	_outPipes+5,f,c	;volatile
  8169                           
  8170                           ;usb_device.c: 1892: for(i=0;i<byteToRead;i++)
  8171  001054  0E00               	movlw	0
  8172  001056  6E2C               	movwf	USBCtrlTrfRxService@i,c
  8173  001058  D011               	goto	i2l1943
  8174  00105A                     i2l1937:
  8175                           
  8176                           ;usb_device.c: 1893: {
  8177                           ;usb_device.c: 1894: *outPipes[0].pDst.bRam++ = CtrlTrfData[i];
  8178  00105A  502C               	movf	USBCtrlTrfRxService@i,w,c
  8179  00105C  0D01               	mullw	1
  8180  00105E  0E28               	movlw	40
  8181  001060  24F3               	addwf	prodl,w,c
  8182  001062  6ED9               	movwf	fsr2l,c
  8183  001064  0E04               	movlw	4
  8184  001066  20F4               	addwfc	prodh,w,c
  8185  001068  6EDA               	movwf	fsr2h,c
  8186  00106A  C001  FFE1         	movff	_outPipes,fsr1l	;volatile
  8187  00106E  C002  FFE2         	movff	_outPipes+1,fsr1h	;volatile
  8188  001072  CFDF FFE7          	movff	indf2,indf1
  8189  001076  4A01               	infsnz	_outPipes,f,c	;volatile
  8190  001078  2A02               	incf	_outPipes+1,f,c	;volatile
  8191  00107A  2A2C               	incf	USBCtrlTrfRxService@i,f,c
  8192  00107C                     i2l1943:
  8193  00107C  502D               	movf	USBCtrlTrfRxService@byteToRead,w,c
  8194  00107E  5C2C               	subwf	USBCtrlTrfRxService@i,w,c
  8195  001080  A0D8               	btfss	status,0,c
  8196  001082  D7EB               	goto	i2l1937
  8197                           
  8198                           ;usb_device.c: 1895: }
  8199                           ;usb_device.c: 1899: if(outPipes[0].wCount.Val > 0)
  8200  001084  5005               	movf	_outPipes+4,w,c	;volatile
  8201  001086  1006               	iorwf	_outPipes+5,w,c	;volatile
  8202  001088  B4D8               	btfsc	status,2,c
  8203  00108A  D032               	goto	i2l1959
  8204                           
  8205                           ;usb_device.c: 1900: {
  8206                           ;usb_device.c: 1901: pBDTEntryEP0OutNext->CNT = 8;
  8207  00108C  EE20 F001          	lfsr	2,1
  8208  001090  5019               	movf	_pBDTEntryEP0OutNext,w,c
  8209  001092  26D9               	addwf	fsr2l,f,c
  8210  001094  501A               	movf	_pBDTEntryEP0OutNext+1,w,c
  8211  001096  22DA               	addwfc	fsr2h,f,c
  8212  001098  0E08               	movlw	8
  8213  00109A  6EDF               	movwf	indf2,c
  8214                           
  8215                           ;usb_device.c: 1902: pBDTEntryEP0OutNext->ADR = ((uint16_t)(&CtrlTrfData));
  8216  00109C  EE20 F002          	lfsr	2,2
  8217  0010A0  5019               	movf	_pBDTEntryEP0OutNext,w,c
  8218  0010A2  26D9               	addwf	fsr2l,f,c
  8219  0010A4  501A               	movf	_pBDTEntryEP0OutNext+1,w,c
  8220  0010A6  22DA               	addwfc	fsr2h,f,c
  8221  0010A8  0E28               	movlw	40
  8222  0010AA  6EDE               	movwf	postinc2,c
  8223  0010AC  0E04               	movlw	4
  8224  0010AE  6EDD               	movwf	postdec2,c
  8225                           
  8226                           ;usb_device.c: 1903: if(pBDTEntryEP0OutCurrent->STAT.DTS == 0)
  8227  0010B0  C017  FFD9         	movff	_pBDTEntryEP0OutCurrent,fsr2l
  8228  0010B4  C018  FFDA         	movff	_pBDTEntryEP0OutCurrent+1,fsr2h
  8229  0010B8  BCDF               	btfsc	indf2,6,c
  8230  0010BA  D00D               	goto	i2l1955
  8231                           
  8232                           ;usb_device.c: 1904: {
  8233                           ;usb_device.c: 1905: pBDTEntryEP0OutNext->STAT.Val = 0x40|(0x08 & 0x08);
  8234  0010BC  C019  FFD9         	movff	_pBDTEntryEP0OutNext,fsr2l
  8235  0010C0  C01A  FFDA         	movff	_pBDTEntryEP0OutNext+1,fsr2h
  8236  0010C4  0E48               	movlw	72
  8237  0010C6  6EDF               	movwf	indf2,c
  8238                           
  8239                           ;usb_device.c: 1906: pBDTEntryEP0OutNext->STAT.Val |= 0x80;
  8240  0010C8  C019  FFD9         	movff	_pBDTEntryEP0OutNext,fsr2l
  8241  0010CC  C01A  FFDA         	movff	_pBDTEntryEP0OutNext+1,fsr2h
  8242  0010D0  0E00               	movlw	0
  8243  0010D2  8EDB               	bsf	plusw2,7,c
  8244                           
  8245                           ;usb_device.c: 1907: }
  8246  0010D4  0012               	return	
  8247  0010D6                     i2l1955:
  8248                           
  8249                           ;usb_device.c: 1908: else
  8250                           ;usb_device.c: 1909: {
  8251                           ;usb_device.c: 1910: pBDTEntryEP0OutNext->STAT.Val = 0x00|(0x08 & 0x08);
  8252  0010D6  C019  FFD9         	movff	_pBDTEntryEP0OutNext,fsr2l
  8253  0010DA  C01A  FFDA         	movff	_pBDTEntryEP0OutNext+1,fsr2h
  8254  0010DE  0E08               	movlw	8
  8255  0010E0  6EDF               	movwf	indf2,c
  8256                           
  8257                           ;usb_device.c: 1911: pBDTEntryEP0OutNext->STAT.Val |= 0x80;
  8258  0010E2  C019  FFD9         	movff	_pBDTEntryEP0OutNext,fsr2l
  8259  0010E6  C01A  FFDA         	movff	_pBDTEntryEP0OutNext+1,fsr2h
  8260  0010EA  0E00               	movlw	0
  8261  0010EC  8EDB               	bsf	plusw2,7,c
  8262                           
  8263                           ;usb_device.c: 1912: }
  8264                           ;usb_device.c: 1913: }
  8265  0010EE  0012               	return	
  8266  0010F0                     i2l1959:
  8267                           
  8268                           ;usb_device.c: 1914: else
  8269                           ;usb_device.c: 1915: {
  8270                           ;usb_device.c: 1919: pBDTEntryEP0OutNext->CNT = 8;
  8271  0010F0  EE20 F001          	lfsr	2,1
  8272  0010F4  5019               	movf	_pBDTEntryEP0OutNext,w,c
  8273  0010F6  26D9               	addwf	fsr2l,f,c
  8274  0010F8  501A               	movf	_pBDTEntryEP0OutNext+1,w,c
  8275  0010FA  22DA               	addwfc	fsr2h,f,c
  8276  0010FC  0E08               	movlw	8
  8277  0010FE  6EDF               	movwf	indf2,c
  8278                           
  8279                           ;usb_device.c: 1920: pBDTEntryEP0OutNext->ADR = ((uint16_t)(&SetupPkt));
  8280  001100  EE20 F002          	lfsr	2,2
  8281  001104  5019               	movf	_pBDTEntryEP0OutNext,w,c
  8282  001106  26D9               	addwf	fsr2l,f,c
  8283  001108  501A               	movf	_pBDTEntryEP0OutNext+1,w,c
  8284  00110A  22DA               	addwfc	fsr2h,f,c
  8285  00110C  0E20               	movlw	32
  8286  00110E  6EDE               	movwf	postinc2,c
  8287  001110  0E04               	movlw	4
  8288  001112  6EDD               	movwf	postdec2,c
  8289                           
  8290                           ;usb_device.c: 1924: pBDTEntryEP0OutNext->STAT.Val = 0x04;
  8291  001114  C019  FFD9         	movff	_pBDTEntryEP0OutNext,fsr2l
  8292  001118  C01A  FFDA         	movff	_pBDTEntryEP0OutNext+1,fsr2h
  8293  00111C  0E04               	movlw	4
  8294  00111E  6EDF               	movwf	indf2,c
  8295                           
  8296                           ;usb_device.c: 1925: pBDTEntryEP0OutNext->STAT.Val |= 0x80;
  8297  001120  C019  FFD9         	movff	_pBDTEntryEP0OutNext,fsr2l
  8298  001124  C01A  FFDA         	movff	_pBDTEntryEP0OutNext+1,fsr2h
  8299  001128  0E00               	movlw	0
  8300  00112A  8EDB               	bsf	plusw2,7,c
  8301                           
  8302                           ;usb_device.c: 1944: }
  8303                           ;usb_device.c: 1945: outPipes[0].info.bits.busy = 0;
  8304                           
  8305                           ;usb_device.c: 1933: {
  8306                           ;usb_device.c: 1939: outPipes[0].pFunc();
  8307  00112C  9E04               	bcf	_outPipes+3,7,c	;volatile
  8308                           
  8309                           ;usb_device.c: 1959: if(USBDeferStatusStagePacket == 0)
  8310  00112E  5020               	movf	_USBDeferStatusStagePacket,w,c	;volatile
  8311  001130  A4D8               	btfss	status,2,c
  8312  001132  0012               	return	
  8313                           
  8314                           ;usb_device.c: 1960: {
  8315                           ;usb_device.c: 1961: USBCtrlEPAllowStatusStage();
  8316  001134  EC99  F00B         	call	_USBCtrlEPAllowStatusStage	;wreg free
  8317  001138  0012               	return	
  8318  00113A                     __end_of_USBCtrlTrfRxService:
  8319                           	opt stack 0
  8320                           pclatu	equ	0xFFB
  8321                           pclath	equ	0xFFA
  8322                           tblptru	equ	0xFF8
  8323                           tblptrh	equ	0xFF7
  8324                           tblptrl	equ	0xFF6
  8325                           tablat	equ	0xFF5
  8326                           prodh	equ	0xFF4
  8327                           prodl	equ	0xFF3
  8328                           intcon	equ	0xFF2
  8329                           indf0	equ	0xFEF
  8330                           postinc0	equ	0xFEE
  8331                           fsr0h	equ	0xFEA
  8332                           fsr0l	equ	0xFE9
  8333                           wreg	equ	0xFE8
  8334                           indf1	equ	0xFE7
  8335                           fsr1h	equ	0xFE2
  8336                           fsr1l	equ	0xFE1
  8337                           indf2	equ	0xFDF
  8338                           postinc2	equ	0xFDE
  8339                           postdec2	equ	0xFDD
  8340                           plusw2	equ	0xFDB
  8341                           fsr2h	equ	0xFDA
  8342                           fsr2l	equ	0xFD9
  8343                           status	equ	0xFD8
  8344                           
  8345 ;; *************** function _USBCtrlEPAllowStatusStage *****************
  8346 ;; Defined at:
  8347 ;;		line 1434 in file "../src/master/inc/src/usb_device.c"
  8348 ;; Parameters:    Size  Location     Type
  8349 ;;		None
  8350 ;; Auto vars:     Size  Location     Type
  8351 ;;		None
  8352 ;; Return value:  Size  Location     Type
  8353 ;;                  1    wreg      void 
  8354 ;; Registers used:
  8355 ;;		wreg, fsr2l, fsr2h, status,2, status,0
  8356 ;; Tracked objects:
  8357 ;;		On entry : 0/0
  8358 ;;		On exit  : 0/0
  8359 ;;		Unchanged: 0/0
  8360 ;; Data sizes:     COMRAM   BANK0   BANK1   BANK2   BANK3   BANK4   BANK5   BANK6   BANK7
  8361 ;;      Params:         0       0       0       0       0       0       0       0       0
  8362 ;;      Locals:         0       0       0       0       0       0       0       0       0
  8363 ;;      Temps:          0       0       0       0       0       0       0       0       0
  8364 ;;      Totals:         0       0       0       0       0       0       0       0       0
  8365 ;;Total ram usage:        0 bytes
  8366 ;; Hardware stack levels used:    1
  8367 ;; This function calls:
  8368 ;;		Nothing
  8369 ;; This function is called by:
  8370 ;;		_USBDeviceTasks
  8371 ;;		_USBCtrlEPServiceComplete
  8372 ;;		_USBCtrlTrfRxService
  8373 ;; This function uses a non-reentrant model
  8374 ;;
  8375                           
  8376                           	psect	text44
  8377  001732                     __ptext44:
  8378                           	opt stack 0
  8379  001732                     _USBCtrlEPAllowStatusStage:
  8380                           	opt stack 22
  8381                           
  8382                           ;usb_device.c: 1441: if(USBStatusStageEnabledFlag1 == 0)
  8383                           
  8384                           ;incstack = 0
  8385  001732  5022               	movf	_USBStatusStageEnabledFlag1,w,c	;volatile
  8386  001734  A4D8               	btfss	status,2,c
  8387  001736  0012               	return	
  8388                           
  8389                           ;usb_device.c: 1442: {
  8390                           ;usb_device.c: 1443: USBStatusStageEnabledFlag1 = 1;
  8391  001738  0E01               	movlw	1
  8392  00173A  6E22               	movwf	_USBStatusStageEnabledFlag1,c	;volatile
  8393                           
  8394                           ;usb_device.c: 1444: if(USBStatusStageEnabledFlag2 == 0)
  8395  00173C  5023               	movf	_USBStatusStageEnabledFlag2,w,c	;volatile
  8396  00173E  A4D8               	btfss	status,2,c
  8397  001740  0012               	return	
  8398                           
  8399                           ;usb_device.c: 1445: {
  8400                           ;usb_device.c: 1446: USBStatusStageEnabledFlag2 = 1;
  8401  001742  0E01               	movlw	1
  8402  001744  6E23               	movwf	_USBStatusStageEnabledFlag2,c	;volatile
  8403                           
  8404                           ;usb_device.c: 1450: if(controlTransferState == 2)
  8405  001746  0E02               	movlw	2
  8406  001748  1826               	xorwf	_controlTransferState,w,c	;volatile
  8407  00174A  A4D8               	btfss	status,2,c
  8408  00174C  D015               	goto	i2l1653
  8409                           
  8410                           ;usb_device.c: 1451: {
  8411                           ;usb_device.c: 1452: pBDTEntryIn[0]->CNT = 0;
  8412  00174E  EE20 F001          	lfsr	2,1
  8413  001752  500F               	movf	_pBDTEntryIn,w,c
  8414  001754  26D9               	addwf	fsr2l,f,c
  8415  001756  5010               	movf	_pBDTEntryIn+1,w,c
  8416  001758  22DA               	addwfc	fsr2h,f,c
  8417  00175A  0E00               	movlw	0
  8418  00175C  6EDF               	movwf	indf2,c
  8419                           
  8420                           ;usb_device.c: 1453: pBDTEntryIn[0]->STAT.Val = 0x40|(0x08 & 0x08);
  8421  00175E  C00F  FFD9         	movff	_pBDTEntryIn,fsr2l
  8422  001762  C010  FFDA         	movff	_pBDTEntryIn+1,fsr2h
  8423  001766  0E48               	movlw	72
  8424  001768  6EDF               	movwf	indf2,c
  8425                           
  8426                           ;usb_device.c: 1454: pBDTEntryIn[0]->STAT.Val |= 0x80;
  8427  00176A  C00F  FFD9         	movff	_pBDTEntryIn,fsr2l
  8428  00176E  C010  FFDA         	movff	_pBDTEntryIn+1,fsr2h
  8429  001772  0E00               	movlw	0
  8430  001774  8EDB               	bsf	plusw2,7,c
  8431                           
  8432                           ;usb_device.c: 1455: }
  8433  001776  0012               	return	
  8434  001778                     i2l1653:
  8435                           
  8436                           ;usb_device.c: 1456: else if(controlTransferState == 1)
  8437  001778  0426               	decf	_controlTransferState,w,c	;volatile
  8438  00177A  A4D8               	btfss	status,2,c
  8439  00177C  0012               	return	
  8440                           
  8441                           ;usb_device.c: 1457: {
  8442                           ;usb_device.c: 1458: BothEP0OutUOWNsSet = 0;
  8443  00177E  0E00               	movlw	0
  8444  001780  6E1B               	movwf	_BothEP0OutUOWNsSet,c	;volatile
  8445                           
  8446                           ;usb_device.c: 1463: pBDTEntryEP0OutCurrent->CNT = 8;
  8447  001782  EE20 F001          	lfsr	2,1
  8448  001786  5017               	movf	_pBDTEntryEP0OutCurrent,w,c
  8449  001788  26D9               	addwf	fsr2l,f,c
  8450  00178A  5018               	movf	_pBDTEntryEP0OutCurrent+1,w,c
  8451  00178C  22DA               	addwfc	fsr2h,f,c
  8452  00178E  0E08               	movlw	8
  8453  001790  6EDF               	movwf	indf2,c
  8454                           
  8455                           ;usb_device.c: 1464: pBDTEntryEP0OutCurrent->ADR = ((uint16_t)(&SetupPkt));
  8456  001792  EE20 F002          	lfsr	2,2
  8457  001796  5017               	movf	_pBDTEntryEP0OutCurrent,w,c
  8458  001798  26D9               	addwf	fsr2l,f,c
  8459  00179A  5018               	movf	_pBDTEntryEP0OutCurrent+1,w,c
  8460  00179C  22DA               	addwfc	fsr2h,f,c
  8461  00179E  0E20               	movlw	32
  8462  0017A0  6EDE               	movwf	postinc2,c
  8463  0017A2  0E04               	movlw	4
  8464  0017A4  6EDD               	movwf	postdec2,c
  8465                           
  8466                           ;usb_device.c: 1465: pBDTEntryEP0OutCurrent->STAT.Val = 0x04;
  8467  0017A6  C017  FFD9         	movff	_pBDTEntryEP0OutCurrent,fsr2l
  8468  0017AA  C018  FFDA         	movff	_pBDTEntryEP0OutCurrent+1,fsr2h
  8469  0017AE  0E04               	movlw	4
  8470  0017B0  6EDF               	movwf	indf2,c
  8471                           
  8472                           ;usb_device.c: 1466: pBDTEntryEP0OutCurrent->STAT.Val |= 0x80;
  8473  0017B2  C017  FFD9         	movff	_pBDTEntryEP0OutCurrent,fsr2l
  8474  0017B6  C018  FFDA         	movff	_pBDTEntryEP0OutCurrent+1,fsr2h
  8475  0017BA  0E00               	movlw	0
  8476  0017BC  8EDB               	bsf	plusw2,7,c
  8477                           
  8478                           ;usb_device.c: 1467: BothEP0OutUOWNsSet = 1;
  8479  0017BE  0E01               	movlw	1
  8480  0017C0  6E1B               	movwf	_BothEP0OutUOWNsSet,c	;volatile
  8481                           
  8482                           ;usb_device.c: 1471: pBDTEntryEP0OutNext->CNT = 8;
  8483  0017C2  EE20 F001          	lfsr	2,1
  8484  0017C6  5019               	movf	_pBDTEntryEP0OutNext,w,c
  8485  0017C8  26D9               	addwf	fsr2l,f,c
  8486  0017CA  501A               	movf	_pBDTEntryEP0OutNext+1,w,c
  8487  0017CC  22DA               	addwfc	fsr2h,f,c
  8488  0017CE  0E08               	movlw	8
  8489  0017D0  6EDF               	movwf	indf2,c
  8490                           
  8491                           ;usb_device.c: 1472: pBDTEntryEP0OutNext->ADR = ((uint16_t)(&SetupPkt));
  8492  0017D2  EE20 F002          	lfsr	2,2
  8493  0017D6  5019               	movf	_pBDTEntryEP0OutNext,w,c
  8494  0017D8  26D9               	addwf	fsr2l,f,c
  8495  0017DA  501A               	movf	_pBDTEntryEP0OutNext+1,w,c
  8496  0017DC  22DA               	addwfc	fsr2h,f,c
  8497  0017DE  0E20               	movlw	32
  8498  0017E0  6EDE               	movwf	postinc2,c
  8499  0017E2  0E04               	movlw	4
  8500  0017E4  6EDD               	movwf	postdec2,c
  8501                           
  8502                           ;usb_device.c: 1473: pBDTEntryEP0OutNext->STAT.Val = 0x80;
  8503  0017E6  C019  FFD9         	movff	_pBDTEntryEP0OutNext,fsr2l
  8504  0017EA  C01A  FFDA         	movff	_pBDTEntryEP0OutNext+1,fsr2h
  8505  0017EE  0E80               	movlw	128
  8506  0017F0  6EDF               	movwf	indf2,c
  8507  0017F2  0012               	return	
  8508  0017F4                     __end_of_USBCtrlEPAllowStatusStage:
  8509                           	opt stack 0
  8510                           pclatu	equ	0xFFB
  8511                           pclath	equ	0xFFA
  8512                           tblptru	equ	0xFF8
  8513                           tblptrh	equ	0xFF7
  8514                           tblptrl	equ	0xFF6
  8515                           tablat	equ	0xFF5
  8516                           prodh	equ	0xFF4
  8517                           prodl	equ	0xFF3
  8518                           intcon	equ	0xFF2
  8519                           indf0	equ	0xFEF
  8520                           postinc0	equ	0xFEE
  8521                           fsr0h	equ	0xFEA
  8522                           fsr0l	equ	0xFE9
  8523                           wreg	equ	0xFE8
  8524                           indf1	equ	0xFE7
  8525                           fsr1h	equ	0xFE2
  8526                           fsr1l	equ	0xFE1
  8527                           indf2	equ	0xFDF
  8528                           postinc2	equ	0xFDE
  8529                           postdec2	equ	0xFDD
  8530                           plusw2	equ	0xFDB
  8531                           fsr2h	equ	0xFDA
  8532                           fsr2l	equ	0xFD9
  8533                           status	equ	0xFD8
  8534                           
  8535 ;; *************** function _USBCtrlTrfInHandler *****************
  8536 ;; Defined at:
  8537 ;;		line 2609 in file "../src/master/inc/src/usb_device.c"
  8538 ;; Parameters:    Size  Location     Type
  8539 ;;		None
  8540 ;; Auto vars:     Size  Location     Type
  8541 ;;  lastDTS         1    1[COMRAM] unsigned char 
  8542 ;; Return value:  Size  Location     Type
  8543 ;;                  1    wreg      void 
  8544 ;; Registers used:
  8545 ;;		wreg, fsr0l, fsr0h, fsr2l, fsr2h, status,2, status,0, tblptrl, tblptrh, tblptru, cstack
  8546 ;; Tracked objects:
  8547 ;;		On entry : 0/0
  8548 ;;		On exit  : 0/0
  8549 ;;		Unchanged: 0/0
  8550 ;; Data sizes:     COMRAM   BANK0   BANK1   BANK2   BANK3   BANK4   BANK5   BANK6   BANK7
  8551 ;;      Params:         0       0       0       0       0       0       0       0       0
  8552 ;;      Locals:         1       0       0       0       0       0       0       0       0
  8553 ;;      Temps:          0       0       0       0       0       0       0       0       0
  8554 ;;      Totals:         1       0       0       0       0       0       0       0       0
  8555 ;;Total ram usage:        1 bytes
  8556 ;; Hardware stack levels used:    1
  8557 ;; Hardware stack levels required when called:    1
  8558 ;; This function calls:
  8559 ;;		_USBCtrlTrfTxService
  8560 ;; This function is called by:
  8561 ;;		_USBCtrlEPService
  8562 ;; This function uses a non-reentrant model
  8563 ;;
  8564                           
  8565                           	psect	text45
  8566  0018AE                     __ptext45:
  8567                           	opt stack 0
  8568  0018AE                     _USBCtrlTrfInHandler:
  8569                           	opt stack 23
  8570                           
  8571                           ;usb_device.c: 2611: uint8_t lastDTS;
  8572                           ;usb_device.c: 2613: lastDTS = pBDTEntryIn[0]->STAT.DTS;
  8573                           
  8574                           ;incstack = 0
  8575  0018AE  C00F  FFD9         	movff	_pBDTEntryIn,fsr2l
  8576  0018B2  C010  FFDA         	movff	_pBDTEntryIn+1,fsr2h
  8577  0018B6  0E00               	movlw	0
  8578  0018B8  BCDF               	btfsc	indf2,6,c
  8579  0018BA  0E01               	movlw	1
  8580  0018BC  6E2D               	movwf	USBCtrlTrfInHandler@lastDTS,c
  8581                           
  8582                           ;usb_device.c: 2616: ((uint8_t_VAL*)&pBDTEntryIn[0])->Val ^= 0x0004;
  8583  0018BE  0E04               	movlw	4
  8584  0018C0  1A0F               	xorwf	_pBDTEntryIn,f,c
  8585                           
  8586                           ;usb_device.c: 2621: if(USBDeviceState == ADR_PENDING_STATE)
  8587  0018C2  0E08               	movlw	8
  8588  0018C4  1821               	xorwf	_USBDeviceState,w,c	;volatile
  8589  0018C6  A4D8               	btfss	status,2,c
  8590  0018C8  D00B               	goto	i2l3415
  8591                           
  8592                           ;usb_device.c: 2622: {
  8593                           ;usb_device.c: 2623: UADDR = (SetupPkt.bDevADR & 0x7F);
  8594  0018CA  0104               	movlb	4	; () banked
  8595  0018CC  5122               	movf	34,w,b	;volatile
  8596  0018CE  0B7F               	andlw	127
  8597  0018D0  6E6E               	movwf	3950,c	;volatile
  8598                           
  8599                           ; BSR set to: 4
  8600                           ;usb_device.c: 2624: if(UADDR != 0u)
  8601  0018D2  506E               	movf	3950,w,c	;volatile
  8602  0018D4  B4D8               	btfsc	status,2,c
  8603  0018D6  D002               	goto	i2l3413
  8604                           
  8605                           ; BSR set to: 4
  8606                           ;usb_device.c: 2625: {
  8607                           ;usb_device.c: 2626: USBDeviceState=ADDRESS_STATE;
  8608  0018D8  0E10               	movlw	16
  8609  0018DA  D001               	goto	L14
  8610  0018DC                     i2l3413:
  8611                           
  8612                           ; BSR set to: 4
  8613                           ;usb_device.c: 2628: else
  8614                           ;usb_device.c: 2629: {
  8615                           ;usb_device.c: 2630: USBDeviceState=DEFAULT_STATE;
  8616  0018DC  0E04               	movlw	4
  8617  0018DE                     L14:
  8618  0018DE  6E21               	movwf	_USBDeviceState,c	;volatile
  8619  0018E0                     i2l3415:
  8620                           
  8621                           ;usb_device.c: 2631: }
  8622                           ;usb_device.c: 2632: }
  8623                           ;usb_device.c: 2635: if(controlTransferState == 1)
  8624  0018E0  0426               	decf	_controlTransferState,w,c	;volatile
  8625  0018E2  A4D8               	btfss	status,2,c
  8626  0018E4  D03A               	goto	i2l440
  8627                           
  8628                           ;usb_device.c: 2636: {
  8629                           ;usb_device.c: 2637: pBDTEntryIn[0]->ADR = ((uint16_t)(CtrlTrfData));
  8630  0018E6  EE20 F002          	lfsr	2,2
  8631  0018EA  500F               	movf	_pBDTEntryIn,w,c
  8632  0018EC  26D9               	addwf	fsr2l,f,c
  8633  0018EE  5010               	movf	_pBDTEntryIn+1,w,c
  8634  0018F0  22DA               	addwfc	fsr2h,f,c
  8635  0018F2  0E28               	movlw	40
  8636  0018F4  6EDE               	movwf	postinc2,c
  8637  0018F6  0E04               	movlw	4
  8638  0018F8  6EDD               	movwf	postdec2,c
  8639                           
  8640                           ;usb_device.c: 2638: USBCtrlTrfTxService();
  8641  0018FA  EC32  F00B         	call	_USBCtrlTrfTxService	;wreg free
  8642                           
  8643                           ;usb_device.c: 2644: if(shortPacketStatus == 2)
  8644  0018FE  0E02               	movlw	2
  8645  001900  1828               	xorwf	_shortPacketStatus,w,c	;volatile
  8646  001902  A4D8               	btfss	status,2,c
  8647  001904  D00D               	goto	i2l3427
  8648                           
  8649                           ;usb_device.c: 2645: {
  8650                           ;usb_device.c: 2648: pBDTEntryIn[0]->STAT.Val = 0x04;
  8651  001906  C00F  FFD9         	movff	_pBDTEntryIn,fsr2l
  8652  00190A  C010  FFDA         	movff	_pBDTEntryIn+1,fsr2h
  8653  00190E  0E04               	movlw	4
  8654  001910  6EDF               	movwf	indf2,c
  8655                           
  8656                           ;usb_device.c: 2649: pBDTEntryIn[0]->STAT.Val |= 0x80;
  8657  001912  C00F  FFD9         	movff	_pBDTEntryIn,fsr2l
  8658  001916  C010  FFDA         	movff	_pBDTEntryIn+1,fsr2h
  8659  00191A  0E00               	movlw	0
  8660  00191C  8EDB               	bsf	plusw2,7,c
  8661                           
  8662                           ;usb_device.c: 2650: }
  8663  00191E  0012               	return	
  8664  001920                     i2l3427:
  8665                           
  8666                           ;usb_device.c: 2651: else
  8667                           ;usb_device.c: 2652: {
  8668                           ;usb_device.c: 2653: if(lastDTS == 0)
  8669  001920  502D               	movf	USBCtrlTrfInHandler@lastDTS,w,c
  8670  001922  A4D8               	btfss	status,2,c
  8671  001924  D00D               	goto	i2l3433
  8672                           
  8673                           ;usb_device.c: 2654: {
  8674                           ;usb_device.c: 2655: pBDTEntryIn[0]->STAT.Val = 0x40|(0x08 & 0x08);
  8675  001926  C00F  FFD9         	movff	_pBDTEntryIn,fsr2l
  8676  00192A  C010  FFDA         	movff	_pBDTEntryIn+1,fsr2h
  8677  00192E  0E48               	movlw	72
  8678  001930  6EDF               	movwf	indf2,c
  8679                           
  8680                           ;usb_device.c: 2656: pBDTEntryIn[0]->STAT.Val |= 0x80;
  8681  001932  C00F  FFD9         	movff	_pBDTEntryIn,fsr2l
  8682  001936  C010  FFDA         	movff	_pBDTEntryIn+1,fsr2h
  8683  00193A  0E00               	movlw	0
  8684  00193C  8EDB               	bsf	plusw2,7,c
  8685                           
  8686                           ;usb_device.c: 2657: }
  8687  00193E  0012               	return	
  8688  001940                     i2l3433:
  8689                           
  8690                           ;usb_device.c: 2658: else
  8691                           ;usb_device.c: 2659: {
  8692                           ;usb_device.c: 2660: pBDTEntryIn[0]->STAT.Val = 0x00|(0x08 & 0x08);
  8693  001940  C00F  FFD9         	movff	_pBDTEntryIn,fsr2l
  8694  001944  C010  FFDA         	movff	_pBDTEntryIn+1,fsr2h
  8695  001948  0E08               	movlw	8
  8696  00194A  6EDF               	movwf	indf2,c
  8697                           
  8698                           ;usb_device.c: 2661: pBDTEntryIn[0]->STAT.Val |= 0x80;
  8699  00194C  C00F  FFD9         	movff	_pBDTEntryIn,fsr2l
  8700  001950  C010  FFDA         	movff	_pBDTEntryIn+1,fsr2h
  8701  001954  0E00               	movlw	0
  8702  001956  8EDB               	bsf	plusw2,7,c
  8703                           
  8704                           ;usb_device.c: 2662: }
  8705                           ;usb_device.c: 2663: }
  8706                           ;usb_device.c: 2664: }
  8707  001958  0012               	return	
  8708  00195A                     i2l440:
  8709                           
  8710                           ;usb_device.c: 2665: else
  8711                           ;usb_device.c: 2666: {
  8712                           ;usb_device.c: 2670: if(outPipes[0].info.bits.busy == 1)
  8713  00195A  BE04               	btfsc	_outPipes+3,7,c	;volatile
  8714                           
  8715                           ;usb_device.c: 2675: }
  8716                           ;usb_device.c: 2676: outPipes[0].info.bits.busy = 0;
  8717                           
  8718                           ;usb_device.c: 2673: {
  8719                           ;usb_device.c: 2674: outPipes[0].pFunc();
  8720  00195C  9E04               	bcf	_outPipes+3,7,c	;volatile
  8721                           
  8722                           ;usb_device.c: 2677: }
  8723                           ;usb_device.c: 2679: controlTransferState = 0;
  8724  00195E  0E00               	movlw	0
  8725  001960  6E26               	movwf	_controlTransferState,c	;volatile
  8726  001962  0012               	return	
  8727  001964                     __end_of_USBCtrlTrfInHandler:
  8728                           	opt stack 0
  8729                           pclatu	equ	0xFFB
  8730                           pclath	equ	0xFFA
  8731                           tblptru	equ	0xFF8
  8732                           tblptrh	equ	0xFF7
  8733                           tblptrl	equ	0xFF6
  8734                           tablat	equ	0xFF5
  8735                           prodh	equ	0xFF4
  8736                           prodl	equ	0xFF3
  8737                           intcon	equ	0xFF2
  8738                           indf0	equ	0xFEF
  8739                           postinc0	equ	0xFEE
  8740                           fsr0h	equ	0xFEA
  8741                           fsr0l	equ	0xFE9
  8742                           wreg	equ	0xFE8
  8743                           indf1	equ	0xFE7
  8744                           fsr1h	equ	0xFE2
  8745                           fsr1l	equ	0xFE1
  8746                           indf2	equ	0xFDF
  8747                           postinc2	equ	0xFDE
  8748                           postdec2	equ	0xFDD
  8749                           plusw2	equ	0xFDB
  8750                           fsr2h	equ	0xFDA
  8751                           fsr2l	equ	0xFD9
  8752                           status	equ	0xFD8
  8753                           
  8754 ;; *************** function _USBCtrlTrfTxService *****************
  8755 ;; Defined at:
  8756 ;;		line 1789 in file "../src/master/inc/src/usb_device.c"
  8757 ;; Parameters:    Size  Location     Type
  8758 ;;		None
  8759 ;; Auto vars:     Size  Location     Type
  8760 ;;  byteToSend      1    0[COMRAM] unsigned char 
  8761 ;; Return value:  Size  Location     Type
  8762 ;;                  1    wreg      void 
  8763 ;; Registers used:
  8764 ;;		wreg, fsr0l, fsr0h, fsr2l, fsr2h, status,2, status,0, tblptrl, tblptrh, tblptru
  8765 ;; Tracked objects:
  8766 ;;		On entry : 0/0
  8767 ;;		On exit  : 0/0
  8768 ;;		Unchanged: 0/0
  8769 ;; Data sizes:     COMRAM   BANK0   BANK1   BANK2   BANK3   BANK4   BANK5   BANK6   BANK7
  8770 ;;      Params:         0       0       0       0       0       0       0       0       0
  8771 ;;      Locals:         1       0       0       0       0       0       0       0       0
  8772 ;;      Temps:          0       0       0       0       0       0       0       0       0
  8773 ;;      Totals:         1       0       0       0       0       0       0       0       0
  8774 ;;Total ram usage:        1 bytes
  8775 ;; Hardware stack levels used:    1
  8776 ;; This function calls:
  8777 ;;		Nothing
  8778 ;; This function is called by:
  8779 ;;		_USBCtrlEPAllowDataStage
  8780 ;;		_USBCtrlTrfInHandler
  8781 ;; This function uses a non-reentrant model
  8782 ;;
  8783                           
  8784                           	psect	text46
  8785  001664                     __ptext46:
  8786                           	opt stack 0
  8787  001664                     _USBCtrlTrfTxService:
  8788                           	opt stack 21
  8789                           
  8790                           ;usb_device.c: 1791: uint8_t byteToSend;
  8791                           ;usb_device.c: 1795: byteToSend = 8;
  8792                           
  8793                           ;incstack = 0
  8794  001664  0E08               	movlw	8
  8795  001666  6E2C               	movwf	USBCtrlTrfTxService@byteToSend,c
  8796                           
  8797                           ;usb_device.c: 1796: if(inPipes[0].wCount.Val < (uint8_t)8)
  8798  001668  500E               	movf	_inPipes+5,w,c	;volatile
  8799  00166A  E110               	bnz	i2l3035
  8800  00166C  0E08               	movlw	8
  8801  00166E  5C0D               	subwf	_inPipes+4,w,c	;volatile
  8802  001670  B0D8               	btfsc	status,0,c
  8803  001672  D00C               	goto	i2l3035
  8804                           
  8805                           ;usb_device.c: 1797: {
  8806                           ;usb_device.c: 1798: byteToSend = inPipes[0].wCount.Val;
  8807  001674  C00D  F02C         	movff	_inPipes+4,USBCtrlTrfTxService@byteToSend	;volatile
  8808                           
  8809                           ;usb_device.c: 1805: if(shortPacketStatus == 0)
  8810  001678  5028               	movf	_shortPacketStatus,w,c	;volatile
  8811  00167A  A4D8               	btfss	status,2,c
  8812  00167C  D002               	goto	i2l3031
  8813                           
  8814                           ;usb_device.c: 1806: {
  8815                           ;usb_device.c: 1807: shortPacketStatus = 1;
  8816  00167E  0E01               	movlw	1
  8817  001680  D004               	goto	L15
  8818  001682                     i2l3031:
  8819                           
  8820                           ;usb_device.c: 1809: else if(shortPacketStatus == 1)
  8821  001682  0428               	decf	_shortPacketStatus,w,c	;volatile
  8822  001684  A4D8               	btfss	status,2,c
  8823  001686  D002               	goto	i2l3035
  8824                           
  8825                           ;usb_device.c: 1810: {
  8826                           ;usb_device.c: 1811: shortPacketStatus = 2;
  8827  001688  0E02               	movlw	2
  8828  00168A                     L15:
  8829  00168A  6E28               	movwf	_shortPacketStatus,c	;volatile
  8830  00168C                     i2l3035:
  8831                           
  8832                           ;usb_device.c: 1812: }
  8833                           ;usb_device.c: 1813: }
  8834                           ;usb_device.c: 1817: inPipes[0].wCount.Val -= byteToSend;
  8835  00168C  502C               	movf	USBCtrlTrfTxService@byteToSend,w,c
  8836  00168E  5E0D               	subwf	_inPipes+4,f,c	;volatile
  8837  001690  0E00               	movlw	0
  8838  001692  5A0E               	subwfb	_inPipes+5,f,c	;volatile
  8839                           
  8840                           ;usb_device.c: 1822: pBDTEntryIn[0]->CNT = byteToSend;
  8841  001694  EE20 F001          	lfsr	2,1
  8842  001698  500F               	movf	_pBDTEntryIn,w,c
  8843  00169A  26D9               	addwf	fsr2l,f,c
  8844  00169C  5010               	movf	_pBDTEntryIn+1,w,c
  8845  00169E  22DA               	addwfc	fsr2h,f,c
  8846  0016A0  C02C  FFDF         	movff	USBCtrlTrfTxService@byteToSend,indf2
  8847                           
  8848                           ;usb_device.c: 1826: pDst = (volatile uint8_t*)CtrlTrfData;
  8849  0016A4  0E28               	movlw	40
  8850  0016A6  0100               	movlb	0	; () banked
  8851  0016A8  6F74               	movwf	_pDst& (0+255),b
  8852  0016AA  0E04               	movlw	4
  8853  0016AC  0100               	movlb	0	; () banked
  8854  0016AE  6F75               	movwf	(_pDst+1)& (0+255),b
  8855                           
  8856                           ; BSR set to: 0
  8857                           ;usb_device.c: 1827: if(inPipes[0].info.bits.ctrl_trf_mem == 0x00)
  8858  0016B0  A00C               	btfss	_inPipes+3,0,c	;volatile
  8859  0016B2  D01C               	goto	i2l3053
  8860  0016B4  D03A               	goto	i2l3063
  8861  0016B6                     i2l3045:
  8862                           
  8863                           ; BSR set to: 0
  8864                           ;usb_device.c: 1830: {
  8865                           ;usb_device.c: 1831: *pDst++ = *inPipes[0].pSrc.bRom++;
  8866  0016B6  C009  FFF6         	movff	_inPipes,tblptrl	;volatile
  8867  0016BA  C00A  FFF7         	movff	_inPipes+1,tblptrh	;volatile
  8868  0016BE  6AF8               	clrf	tblptru,c
  8869  0016C0  C074  FFD9         	movff	_pDst,fsr2l
  8870  0016C4  C075  FFDA         	movff	_pDst+1,fsr2h
  8871  0016C8  0E07               	movlw	(high __ramtop+-1)
  8872  0016CA  64F7               	cpfsgt	tblptrh,c
  8873  0016CC  D003               	bra	i2u170_47
  8874  0016CE  0008               	tblrd		*
  8875  0016D0  50F5               	movf	tablat,w,c
  8876  0016D2  D005               	bra	i2u170_40
  8877  0016D4                     i2u170_47:
  8878  0016D4  CFF6 FFE9          	movff	tblptrl,fsr0l
  8879  0016D8  CFF7 FFEA          	movff	tblptrh,fsr0h
  8880  0016DC  50EF               	movf	indf0,w,c
  8881  0016DE                     i2u170_40:
  8882  0016DE  6EDF               	movwf	indf2,c
  8883  0016E0  4A09               	infsnz	_inPipes,f,c	;volatile
  8884  0016E2  2A0A               	incf	_inPipes+1,f,c	;volatile
  8885  0016E4  0100               	movlb	0	; () banked
  8886  0016E6  4B74               	infsnz	_pDst& (0+255),f,b
  8887  0016E8  2B75               	incf	(_pDst+1)& (0+255),f,b
  8888                           
  8889                           ; BSR set to: 0
  8890                           ;usb_device.c: 1832: byteToSend--;
  8891  0016EA  062C               	decf	USBCtrlTrfTxService@byteToSend,f,c
  8892  0016EC                     i2l3053:
  8893                           
  8894                           ; BSR set to: 0
  8895  0016EC  502C               	movf	USBCtrlTrfTxService@byteToSend,w,c
  8896  0016EE  B4D8               	btfsc	status,2,c
  8897  0016F0  0012               	return	
  8898  0016F2  D7E1               	goto	i2l3045
  8899  0016F4                     i2l3055:
  8900                           
  8901                           ; BSR set to: 0
  8902                           ;usb_device.c: 1838: {
  8903                           ;usb_device.c: 1839: *pDst++ = *inPipes[0].pSrc.bRam++;
  8904  0016F4  C009  FFF6         	movff	_inPipes,tblptrl	;volatile
  8905  0016F8  C00A  FFF7         	movff	_inPipes+1,tblptrh	;volatile
  8906  0016FC  6AF8               	clrf	tblptru,c
  8907  0016FE  C074  FFD9         	movff	_pDst,fsr2l
  8908  001702  C075  FFDA         	movff	_pDst+1,fsr2h
  8909  001706  0E07               	movlw	(high __ramtop+-1)
  8910  001708  64F7               	cpfsgt	tblptrh,c
  8911  00170A  D003               	bra	i2u172_47
  8912  00170C  0008               	tblrd		*
  8913  00170E  50F5               	movf	tablat,w,c
  8914  001710  D005               	bra	i2u172_40
  8915  001712                     i2u172_47:
  8916  001712  CFF6 FFE9          	movff	tblptrl,fsr0l
  8917  001716  CFF7 FFEA          	movff	tblptrh,fsr0h
  8918  00171A  50EF               	movf	indf0,w,c
  8919  00171C                     i2u172_40:
  8920  00171C  6EDF               	movwf	indf2,c
  8921  00171E  4A09               	infsnz	_inPipes,f,c	;volatile
  8922  001720  2A0A               	incf	_inPipes+1,f,c	;volatile
  8923  001722  0100               	movlb	0	; () banked
  8924  001724  4B74               	infsnz	_pDst& (0+255),f,b
  8925  001726  2B75               	incf	(_pDst+1)& (0+255),f,b
  8926                           
  8927                           ; BSR set to: 0
  8928                           ;usb_device.c: 1840: byteToSend--;
  8929  001728  062C               	decf	USBCtrlTrfTxService@byteToSend,f,c
  8930  00172A                     i2l3063:
  8931                           
  8932                           ; BSR set to: 0
  8933  00172A  502C               	movf	USBCtrlTrfTxService@byteToSend,w,c
  8934  00172C  B4D8               	btfsc	status,2,c
  8935  00172E  0012               	return	
  8936  001730  D7E1               	goto	i2l3055
  8937  001732                     __end_of_USBCtrlTrfTxService:
  8938                           	opt stack 0
  8939                           pclatu	equ	0xFFB
  8940                           pclath	equ	0xFFA
  8941                           tblptru	equ	0xFF8
  8942                           tblptrh	equ	0xFF7
  8943                           tblptrl	equ	0xFF6
  8944                           tablat	equ	0xFF5
  8945                           prodh	equ	0xFF4
  8946                           prodl	equ	0xFF3
  8947                           intcon	equ	0xFF2
  8948                           indf0	equ	0xFEF
  8949                           postinc0	equ	0xFEE
  8950                           fsr0h	equ	0xFEA
  8951                           fsr0l	equ	0xFE9
  8952                           wreg	equ	0xFE8
  8953                           indf1	equ	0xFE7
  8954                           fsr1h	equ	0xFE2
  8955                           fsr1l	equ	0xFE1
  8956                           indf2	equ	0xFDF
  8957                           postinc2	equ	0xFDE
  8958                           postdec2	equ	0xFDD
  8959                           plusw2	equ	0xFDB
  8960                           fsr2h	equ	0xFDA
  8961                           fsr2l	equ	0xFD9
  8962                           status	equ	0xFD8
  8963                           pclatu	equ	0xFFB
  8964                           pclath	equ	0xFFA
  8965                           tblptru	equ	0xFF8
  8966                           tblptrh	equ	0xFF7
  8967                           tblptrl	equ	0xFF6
  8968                           tablat	equ	0xFF5
  8969                           prodh	equ	0xFF4
  8970                           prodl	equ	0xFF3
  8971                           intcon	equ	0xFF2
  8972                           indf0	equ	0xFEF
  8973                           postinc0	equ	0xFEE
  8974                           fsr0h	equ	0xFEA
  8975                           fsr0l	equ	0xFE9
  8976                           wreg	equ	0xFE8
  8977                           indf1	equ	0xFE7
  8978                           fsr1h	equ	0xFE2
  8979                           fsr1l	equ	0xFE1
  8980                           indf2	equ	0xFDF
  8981                           postinc2	equ	0xFDE
  8982                           postdec2	equ	0xFDD
  8983                           plusw2	equ	0xFDB
  8984                           fsr2h	equ	0xFDA
  8985                           fsr2l	equ	0xFD9
  8986                           status	equ	0xFD8
  8987                           
  8988                           	psect	rparam
  8989  0000                     pclatu	equ	0xFFB
  8990                           pclath	equ	0xFFA
  8991                           tblptru	equ	0xFF8
  8992                           tblptrh	equ	0xFF7
  8993                           tblptrl	equ	0xFF6
  8994                           tablat	equ	0xFF5
  8995                           prodh	equ	0xFF4
  8996                           prodl	equ	0xFF3
  8997                           intcon	equ	0xFF2
  8998                           indf0	equ	0xFEF
  8999                           postinc0	equ	0xFEE
  9000                           fsr0h	equ	0xFEA
  9001                           fsr0l	equ	0xFE9
  9002                           wreg	equ	0xFE8
  9003                           indf1	equ	0xFE7
  9004                           fsr1h	equ	0xFE2
  9005                           fsr1l	equ	0xFE1
  9006                           indf2	equ	0xFDF
  9007                           postinc2	equ	0xFDE
  9008                           postdec2	equ	0xFDD
  9009                           plusw2	equ	0xFDB
  9010                           fsr2h	equ	0xFDA
  9011                           fsr2l	equ	0xFD9
  9012                           status	equ	0xFD8
  9013                           
  9014                           	psect	temp
  9015  000056                     btemp:
  9016                           	opt stack 0
  9017  000056                     	ds	1
  9018  0000                     int$flags	set	btemp
  9019                           pclatu	equ	0xFFB
  9020                           pclath	equ	0xFFA
  9021                           tblptru	equ	0xFF8
  9022                           tblptrh	equ	0xFF7
  9023                           tblptrl	equ	0xFF6
  9024                           tablat	equ	0xFF5
  9025                           prodh	equ	0xFF4
  9026                           prodl	equ	0xFF3
  9027                           intcon	equ	0xFF2
  9028                           indf0	equ	0xFEF
  9029                           postinc0	equ	0xFEE
  9030                           fsr0h	equ	0xFEA
  9031                           fsr0l	equ	0xFE9
  9032                           wreg	equ	0xFE8
  9033                           indf1	equ	0xFE7
  9034                           fsr1h	equ	0xFE2
  9035                           fsr1l	equ	0xFE1
  9036                           indf2	equ	0xFDF
  9037                           postinc2	equ	0xFDE
  9038                           postdec2	equ	0xFDD
  9039                           plusw2	equ	0xFDB
  9040                           fsr2h	equ	0xFDA
  9041                           fsr2l	equ	0xFD9
  9042                           status	equ	0xFD8


Data Sizes:
    Strings     0
    Constant    198
    Data        0
    BSS         71
    Persistent  0
    Stack       0

Auto Spaces:
    Space          Size  Autos    Used
    COMRAM           94     42      85
    BANK0           160      9      37
    BANK1           256      0       0
    BANK2           256      0       0
    BANK3           256      0       0
    BANK4           208      0       0
    BANK5           128      0       0
    BANK6           256      0       0
    BANK7           256      0       0

Pointer List with Targets:

    USER_USB_CALLBACK_EVENT_HANDLER@pdata	PTR void  size(2) Largest target is 32
		 -> USTATcopy(COMRAM[1]), USBActiveConfiguration(COMRAM[1]), NULL(NULL[0]), BDT(BIGRAMl[32]), 

    memset@p1	PTR void  size(2) Largest target is 32
		 -> USBAlternateInterface(COMRAM[1]), BDT(BIGRAMl[32]), UEP1(SFR[1]), 

    memset@p	PTR unsigned char  size(2) Largest target is 32
		 -> USBAlternateInterface(COMRAM[1]), BDT(BIGRAMl[32]), UEP1(SFR[1]), 

    memcpy@d1	PTR void  size(2) Largest target is 8
		 -> SetupPkt(BIGRAMhl[8]), 

    memcpy@d	PTR unsigned char  size(2) Largest target is 8
		 -> SetupPkt(BIGRAMhl[8]), 

    memcpy@s1	PTR const void  size(2) Largest target is 2047
		 -> ReceivedDataBuffer(BIGRAMhl[64]), RAM(DATA[2047]), CtrlTrfData(BIGRAMhl[8]), SetupPkt(BIGRAMhl[8]), 

    memcpy@s	PTR const unsigned char  size(2) Largest target is 2047
		 -> ReceivedDataBuffer(BIGRAMhl[64]), RAM(DATA[2047]), CtrlTrfData(BIGRAMhl[8]), SetupPkt(BIGRAMhl[8]), 

    SPI_R_putsSPI@wrptr	PTR unsigned char  size(2) Largest target is 2
		 -> LeftRight(BANK0[2]), 

    USBOutHandle	PTR volatile void  size(2) Largest target is 32
		 -> NULL(NULL[0]), BDT(BIGRAMl[32]), 

    USBInHandle	PTR volatile void  size(2) Largest target is 0
		 -> NULL(NULL[0]), 

    USBStdFeatureReqHandler@pUEP	PTR unsigned char  size(2) Largest target is 1
		 -> UEP0(SFR[1]), 

    USBStdFeatureReqHandler@p	PTR struct __BDT size(2) Largest target is 32
		 -> NULL(NULL[0]), BDT(BIGRAMl[32]), 

    sp__memcpy	PTR void  size(2) Largest target is 8
		 -> SetupPkt(BIGRAMhl[8]), 

    USBStdGetStatusHandler@p	PTR struct __BDT size(2) Largest target is 32
		 -> NULL(NULL[0]), BDT(BIGRAMl[32]), 

    pDst	PTR volatile unsigned char  size(2) Largest target is 8
		 -> CtrlTrfData(BIGRAMhl[8]), NULL(NULL[0]), 

    USBConfigureEndpoint@handle	PTR volatile struct __BDT size(2) Largest target is 32
		 -> BDT(BIGRAMl[32]), 

    pBDTEntryEP0OutCurrent	PTR volatile struct __BDT size(2) Largest target is 32
		 -> NULL(NULL[0]), BDT(BIGRAMl[32]), 

    pBDTEntryEP0OutNext	PTR volatile struct __BDT size(2) Largest target is 32
		 -> NULL(NULL[0]), BDT(BIGRAMl[32]), 

    USBTransferOnePacket@data	PTR unsigned char  size(2) Largest target is 64
		 -> ReceivedDataBuffer(BIGRAMhl[64]), 

    sp__USBTransferOnePacket	PTR void  size(2) Largest target is 32
		 -> NULL(NULL[0]), BDT(BIGRAMl[32]), 

    USBTransferOnePacket@handle	PTR volatile struct __BDT size(2) Largest target is 32
		 -> NULL(NULL[0]), BDT(BIGRAMl[32]), 

    USBEnableEndpoint@p	PTR unsigned char  size(2) Largest target is 1
		 -> UEP0(SFR[1]), 

    pBDTEntryOut	PTR volatile struct __BDT[2] size(2) Largest target is 32
		 -> NULL(NULL[0]), BDT(BIGRAMl[32]), 

    pBDTEntryIn	PTR volatile struct __BDT[2] size(2) Largest target is 32
		 -> NULL(NULL[0]), BDT(BIGRAMl[32]), 

    S505$pFunc	PTR FTN()void  size(2) Largest target is 0

    outPipes.pFunc	PTR FTN()void  size(2) Largest target is 0

    S495$wRam	PTR unsigned int  size(2) Largest target is 0

    outPipes.pDst.wRam	PTR unsigned int  size(2) Largest target is 0

    S495$bRam	PTR unsigned char  size(2) Largest target is 0

    outPipes.pDst.bRam	PTR unsigned char  size(2) Largest target is 0

    S471$wRom	PTR const unsigned int  size(2) Largest target is 0

    inPipes.pSrc.wRom	PTR const unsigned int  size(2) Largest target is 0

    S471$wRam	PTR unsigned int  size(2) Largest target is 0

    inPipes.pSrc.wRam	PTR unsigned int  size(2) Largest target is 0

    S471$bRom	PTR const unsigned char  size(2) Largest target is 0

    inPipes.pSrc.bRom	PTR const unsigned char  size(2) Largest target is 0

    S471$bRam	PTR unsigned char  size(2) Largest target is 0

    inPipes.pSrc.bRam	PTR unsigned char  size(2) Largest target is 0

    sp__memset	PTR void  size(2) Largest target is 32
		 -> USBAlternateInterface(COMRAM[1]), BDT(BIGRAMl[32]), UEP1(SFR[1]), 

    USB_SD_Ptr	const PTR const unsigned char [3] size(2) Largest target is 52
		 -> sd002(CODE[46]), sd001(CODE[52]), sd000(CODE[4]), 

    USB_CD_Ptr	const PTR const unsigned char [1] size(2) Largest target is 41
		 -> configDescriptor1(CODE[41]), 


Critical Paths under _main in COMRAM

    None.

Critical Paths under _SYS_InterruptHigh in COMRAM

    _SYS_InterruptHigh->_USBDeviceTasks
    _USBDeviceTasks->_USBCtrlEPService
    i2_USBDeviceInit->i2_memset
    _USBWakeFromSuspend->_USER_USB_CALLBACK_EVENT_HANDLER
    _USBSuspend->_USER_USB_CALLBACK_EVENT_HANDLER
    _USBCtrlEPAllowDataStage->_USBCtrlTrfTxService
    _USBCheckStdRequest->_USBStdFeatureReqHandler
    _USBStdSetCfgHandler->_USER_USB_CALLBACK_EVENT_HANDLER
    _USBStdFeatureReqHandler->_USER_USB_CALLBACK_EVENT_HANDLER
    i2_SYSTEM_Initialize->i2_SPI_R_OpenSPI
    i2_PWM_R_OpenPWM->i2_PWM_R_setPWM1
    i2_PWM_R_OpenPWM->i2_PWM_R_setPWM2
    _APP_DeviceCustomHIDInitialize->_USBEnableEndpoint
    _USBEnableEndpoint->_USBConfigureEndpoint
    _USBCtrlTrfOutHandler->_USBCtrlTrfRxService
    _USBCtrlTrfInHandler->_USBCtrlTrfTxService

Critical Paths under _main in BANK0

    _main->_USBDeviceInit
    _USBDeviceInit->_memset
    _SYSTEM_Initialize->_SPI_R_OpenSPI
    _PWM_R_OpenPWM->_PWM_R_setPWM1
    _PWM_R_OpenPWM->_PWM_R_setPWM2
    _APP_tick->_USBTransferOnePacket
    _APP_iddle->_PWM_R_setPWM1
    _APP_iddle->_PWM_R_setPWM2

Critical Paths under _SYS_InterruptHigh in BANK0

    None.

Critical Paths under _main in BANK1

    None.

Critical Paths under _SYS_InterruptHigh in BANK1

    None.

Critical Paths under _main in BANK2

    None.

Critical Paths under _SYS_InterruptHigh in BANK2

    None.

Critical Paths under _main in BANK3

    None.

Critical Paths under _SYS_InterruptHigh in BANK3

    None.

Critical Paths under _main in BANK4

    None.

Critical Paths under _SYS_InterruptHigh in BANK4

    None.

Critical Paths under _main in BANK5

    None.

Critical Paths under _SYS_InterruptHigh in BANK5

    None.

Critical Paths under _main in BANK6

    None.

Critical Paths under _SYS_InterruptHigh in BANK6

    None.

Critical Paths under _main in BANK7

    None.

Critical Paths under _SYS_InterruptHigh in BANK7

    None.

Call Graph Tables:

 ---------------------------------------------------------------------------------
 (Depth) Function   	        Calls       Base Space   Used Autos Params    Refs
 ---------------------------------------------------------------------------------
 (0) _main                                                 0     0      0    5862
                          _APP_iddle
                           _APP_tick
                  _SYSTEM_Initialize
                    _USBDeviceAttach
                      _USBDeviceInit
 ---------------------------------------------------------------------------------
 (1) _USBDeviceInit                                        1     1      0    1361
                                              8 BANK0      1     1      0
                             _memset
 ---------------------------------------------------------------------------------
 (2) _memset                                               8     2      6    1070
                                              0 BANK0      8     2      6
 ---------------------------------------------------------------------------------
 (1) _USBDeviceAttach                                      0     0      0       0
 ---------------------------------------------------------------------------------
 (1) _SYSTEM_Initialize                                    3     3      0    1253
                                              3 BANK0      3     3      0
                      _PWM_R_OpenPWM
                      _SPI_R_OpenSPI
 ---------------------------------------------------------------------------------
 (2) _SPI_R_OpenSPI                                        3     1      2     332
                                              0 BANK0      3     1      2
 ---------------------------------------------------------------------------------
 (2) _PWM_R_OpenPWM                                        0     0      0     822
                      _PWM_R_setPWM1
                      _PWM_R_setPWM2
 ---------------------------------------------------------------------------------
 (1) _APP_tick                                             0     0      0    2085
                      _PWM_R_setPWM1
                      _PWM_R_setPWM2
                      _SPI_R_putsSPI
               _USBTransferOnePacket
 ---------------------------------------------------------------------------------
 (2) _USBTransferOnePacket                                 7     3      4     990
                                              0 BANK0      7     3      4
 ---------------------------------------------------------------------------------
 (1) _APP_iddle                                            2     2      0    1163
                                              3 BANK0      2     2      0
                      _PWM_R_setPWM1
                      _PWM_R_setPWM2
                      _SPI_R_putsSPI
 ---------------------------------------------------------------------------------
 (2) _SPI_R_putsSPI                                        2     0      2     273
                                              0 BANK0      2     0      2
 ---------------------------------------------------------------------------------
 (3) _PWM_R_setPWM2                                        3     1      2     411
                                              0 BANK0      3     1      2
 ---------------------------------------------------------------------------------
 (3) _PWM_R_setPWM1                                        3     1      2     411
                                              0 BANK0      3     1      2
 ---------------------------------------------------------------------------------
 Estimated maximum stack depth 3
 ---------------------------------------------------------------------------------
 (Depth) Function   	        Calls       Base Space   Used Autos Params    Refs
 ---------------------------------------------------------------------------------
 (4) _SYS_InterruptHigh                                   14    14      0   31246
                                             28 COMRAM    14    14      0
                     _USBDeviceTasks
 ---------------------------------------------------------------------------------
 (5) _USBDeviceTasks                                       1     1      0   31246
                                             27 COMRAM     1     1      0
          _USBCtrlEPAllowStatusStage
                   _USBCtrlEPService
      _USBIncrement1msInternalTimers
                    _USBStallHandler
                         _USBSuspend
                 _USBWakeFromSuspend
    _USER_USB_CALLBACK_EVENT_HANDLER
                    i2_USBDeviceInit
 ---------------------------------------------------------------------------------
 (6) i2_USBDeviceInit                                      1     1      0     610
                                              8 COMRAM     1     1      0
                           i2_memset
 ---------------------------------------------------------------------------------
 (6) _USBWakeFromSuspend                                   0     0      0    4142
    _USER_USB_CALLBACK_EVENT_HANDLER
 ---------------------------------------------------------------------------------
 (6) _USBSuspend                                           0     0      0    4142
    _USER_USB_CALLBACK_EVENT_HANDLER
 ---------------------------------------------------------------------------------
 (6) _USBStallHandler                                      1     1      0       0
                                              0 COMRAM     1     1      0
 ---------------------------------------------------------------------------------
 (6) _USBIncrement1msInternalTimers                        0     0      0       0
 ---------------------------------------------------------------------------------
 (6) _USBCtrlEPService                                     1     1      0   18164
                                             26 COMRAM     1     1      0
                _USBCtrlTrfInHandler
               _USBCtrlTrfOutHandler
             _USBCtrlTrfSetupHandler
                             _memcpy
 ---------------------------------------------------------------------------------
 (7) _memcpy                                              10     4      6     387
                                              0 COMRAM    10     4      6
 ---------------------------------------------------------------------------------
 (7) _USBCtrlTrfSetupHandler                               0     0      0   17587
                 _USBCheckStdRequest
           _USBCtrlEPServiceComplete
    _USER_USB_CALLBACK_EVENT_HANDLER
 ---------------------------------------------------------------------------------
 (8) _USBCtrlEPServiceComplete                             0     0      0      92
            _USBCtrlEPAllowDataStage
          _USBCtrlEPAllowStatusStage
 ---------------------------------------------------------------------------------
 (9) _USBCtrlEPAllowDataStage                              0     0      0      92
                _USBCtrlTrfTxService
 ---------------------------------------------------------------------------------
 (8) _USBCheckStdRequest                                   0     0      0   13353
            _USBStdFeatureReqHandler
                _USBStdGetDscHandler
             _USBStdGetStatusHandler
                _USBStdSetCfgHandler
    _USER_USB_CALLBACK_EVENT_HANDLER
 ---------------------------------------------------------------------------------
 (9) _USBStdSetCfgHandler                                  1     1      0    4640
                                             20 COMRAM     1     1      0
    _USER_USB_CALLBACK_EVENT_HANDLER
                           i2_memset
 ---------------------------------------------------------------------------------
 (7) i2_memset                                             8     2      6     408
                                              0 COMRAM     8     2      6
 ---------------------------------------------------------------------------------
 (9) _USBStdGetStatusHandler                               3     3      0      46
                                              0 COMRAM     3     3      0
 ---------------------------------------------------------------------------------
 (9) _USBStdGetDscHandler                                  2     2      0       0
                                              0 COMRAM     2     2      0
 ---------------------------------------------------------------------------------
 (9) _USBStdFeatureReqHandler                              6     6      0    4525
                                             20 COMRAM     6     6      0
    _USER_USB_CALLBACK_EVENT_HANDLER
 ---------------------------------------------------------------------------------
 (6) _USER_USB_CALLBACK_EVENT_HANDLER                      8     2      6    4142
                                             12 COMRAM     8     2      6
      _APP_DeviceCustomHIDInitialize
                 _USBCheckHIDRequest
                i2_SYSTEM_Initialize
 ---------------------------------------------------------------------------------
 (7) i2_SYSTEM_Initialize                                  3     3      0     396
                                              3 COMRAM     3     3      0
                    i2_PWM_R_OpenPWM
                    i2_SPI_R_OpenSPI
 ---------------------------------------------------------------------------------
 (8) i2_SPI_R_OpenSPI                                      3     1      2     140
                                              0 COMRAM     3     1      2
 ---------------------------------------------------------------------------------
 (8) i2_PWM_R_OpenPWM                                      0     0      0     188
                    i2_PWM_R_setPWM1
                    i2_PWM_R_setPWM2
 ---------------------------------------------------------------------------------
 (9) i2_PWM_R_setPWM2                                      3     1      2      94
                                              0 COMRAM     3     1      2
 ---------------------------------------------------------------------------------
 (9) i2_PWM_R_setPWM1                                      3     1      2      94
                                              0 COMRAM     3     1      2
 ---------------------------------------------------------------------------------
 (7) _USBCheckHIDRequest                                   0     0      0       0
 ---------------------------------------------------------------------------------
 (7) _APP_DeviceCustomHIDInitialize                        0     0      0    1054
                  _USBEnableEndpoint
             i2_USBTransferOnePacket
 ---------------------------------------------------------------------------------
 (8) i2_USBTransferOnePacket                               7     3      4     410
                                              0 COMRAM     7     3      4
 ---------------------------------------------------------------------------------
 (8) _USBEnableEndpoint                                    4     3      1     644
                                              8 COMRAM     4     3      1
               _USBConfigureEndpoint
 ---------------------------------------------------------------------------------
 (9) _USBConfigureEndpoint                                 8     7      1     400
                                              0 COMRAM     8     7      1
 ---------------------------------------------------------------------------------
 (7) _USBCtrlTrfOutHandler                                 0     0      0      75
                _USBCtrlTrfRxService
 ---------------------------------------------------------------------------------
 (8) _USBCtrlTrfRxService                                  2     2      0      75
                                              0 COMRAM     2     2      0
          _USBCtrlEPAllowStatusStage
 ---------------------------------------------------------------------------------
 (9) _USBCtrlEPAllowStatusStage                            0     0      0       0
 ---------------------------------------------------------------------------------
 (7) _USBCtrlTrfInHandler                                  1     1      0     115
                                              1 COMRAM     1     1      0
                _USBCtrlTrfTxService
 ---------------------------------------------------------------------------------
 (10) _USBCtrlTrfTxService                                 1     1      0      92
                                              0 COMRAM     1     1      0
 ---------------------------------------------------------------------------------
 Estimated maximum stack depth 10
 ---------------------------------------------------------------------------------

 Call Graph Graphs:

 _main (ROOT)
   _APP_iddle
     _PWM_R_setPWM1
     _PWM_R_setPWM2
     _SPI_R_putsSPI
   _APP_tick
     _PWM_R_setPWM1
     _PWM_R_setPWM2
     _SPI_R_putsSPI
     _USBTransferOnePacket
   _SYSTEM_Initialize
     _PWM_R_OpenPWM
       _PWM_R_setPWM1
       _PWM_R_setPWM2
     _SPI_R_OpenSPI
   _USBDeviceAttach
   _USBDeviceInit
     _memset

 _SYS_InterruptHigh (ROOT)
   _USBDeviceTasks
     _USBCtrlEPAllowStatusStage
     _USBCtrlEPService
       _USBCtrlTrfInHandler
         _USBCtrlTrfTxService
       _USBCtrlTrfOutHandler
         _USBCtrlTrfRxService
           _USBCtrlEPAllowStatusStage
       _USBCtrlTrfSetupHandler
         _USBCheckStdRequest
           _USBStdFeatureReqHandler
             _USER_USB_CALLBACK_EVENT_HANDLER
               _APP_DeviceCustomHIDInitialize
                 _USBEnableEndpoint
                   _USBConfigureEndpoint
                 i2_USBTransferOnePacket
               _USBCheckHIDRequest
               i2_SYSTEM_Initialize
                 i2_PWM_R_OpenPWM
                   i2_PWM_R_setPWM1
                   i2_PWM_R_setPWM2
                 i2_SPI_R_OpenSPI
           _USBStdGetDscHandler
           _USBStdGetStatusHandler
           _USBStdSetCfgHandler
             _USER_USB_CALLBACK_EVENT_HANDLER
               _APP_DeviceCustomHIDInitialize
                 _USBEnableEndpoint
                   _USBConfigureEndpoint
                 i2_USBTransferOnePacket
               _USBCheckHIDRequest
               i2_SYSTEM_Initialize
                 i2_PWM_R_OpenPWM
                   i2_PWM_R_setPWM1
                   i2_PWM_R_setPWM2
                 i2_SPI_R_OpenSPI
             i2_memset
           _USER_USB_CALLBACK_EVENT_HANDLER
             _APP_DeviceCustomHIDInitialize
               _USBEnableEndpoint
                 _USBConfigureEndpoint
               i2_USBTransferOnePacket
             _USBCheckHIDRequest
             i2_SYSTEM_Initialize
               i2_PWM_R_OpenPWM
                 i2_PWM_R_setPWM1
                 i2_PWM_R_setPWM2
               i2_SPI_R_OpenSPI
         _USBCtrlEPServiceComplete
           _USBCtrlEPAllowDataStage
             _USBCtrlTrfTxService
           _USBCtrlEPAllowStatusStage
         _USER_USB_CALLBACK_EVENT_HANDLER
           _APP_DeviceCustomHIDInitialize
             _USBEnableEndpoint
               _USBConfigureEndpoint
             i2_USBTransferOnePacket
           _USBCheckHIDRequest
           i2_SYSTEM_Initialize
             i2_PWM_R_OpenPWM
               i2_PWM_R_setPWM1
               i2_PWM_R_setPWM2
             i2_SPI_R_OpenSPI
       _memcpy
     _USBIncrement1msInternalTimers
     _USBStallHandler
     _USBSuspend
       _USER_USB_CALLBACK_EVENT_HANDLER
         _APP_DeviceCustomHIDInitialize
           _USBEnableEndpoint
             _USBConfigureEndpoint
           i2_USBTransferOnePacket
         _USBCheckHIDRequest
         i2_SYSTEM_Initialize
           i2_PWM_R_OpenPWM
             i2_PWM_R_setPWM1
             i2_PWM_R_setPWM2
           i2_SPI_R_OpenSPI
     _USBWakeFromSuspend
       _USER_USB_CALLBACK_EVENT_HANDLER
         _APP_DeviceCustomHIDInitialize
           _USBEnableEndpoint
             _USBConfigureEndpoint
           i2_USBTransferOnePacket
         _USBCheckHIDRequest
         i2_SYSTEM_Initialize
           i2_PWM_R_OpenPWM
             i2_PWM_R_setPWM1
             i2_PWM_R_setPWM2
           i2_SPI_R_OpenSPI
     _USER_USB_CALLBACK_EVENT_HANDLER
       _APP_DeviceCustomHIDInitialize
         _USBEnableEndpoint
           _USBConfigureEndpoint
         i2_USBTransferOnePacket
       _USBCheckHIDRequest
       i2_SYSTEM_Initialize
         i2_PWM_R_OpenPWM
           i2_PWM_R_setPWM1
           i2_PWM_R_setPWM2
         i2_SPI_R_OpenSPI
     i2_USBDeviceInit
       i2_memset

 Address spaces:
Name               Size   Autos  Total    Cost      Usage
BIGRAMl            3FF      0       0      23        0.0%
BIGRAMhh           280      0       0      21        0.0%
EEDATA             100      0       0       0        0.0%
BITBANK7           100      0       0      19        0.0%
BANK7              100      0       0      20        0.0%
BITBANK6           100      0       0      17        0.0%
BANK6              100      0       0      18        0.0%
BITBANK3           100      0       0      10        0.0%
BANK3              100      0       0      11        0.0%
BITBANK2           100      0       0       8        0.0%
BANK2              100      0       0       9        0.0%
BITBANK1           100      0       0       6        0.0%
BANK1              100      0       0       7        0.0%
BIGRAMhl            D0      0       0      22        0.0%
BITBANK4            D0      0       0      12        0.0%
BANK4               D0      0       0      13        0.0%
BITBANK0            A0      0       0       4        0.0%
BANK0               A0      9      25       5       23.1%
BITBANK5            80      0       0      14        0.0%
BANK5               80      0       0      15        0.0%
BITCOMRAM           5E      0       0       0        0.0%
COMRAM              5E     2A      55       1       90.4%
BITSFR               0      0       0      40        0.0%
SFR                  0      0       0      40        0.0%
STACK                0      0       0       2        0.0%
NULL                 0      0       0       0        0.0%
ABS                  0      0      7A      16        0.0%
DATA                 0      0      7A       3        0.0%
CODE                 0      0       0       0        0.0%


Microchip Technology PIC18 Macro Assembler V1.36 build -262312587 
Symbol Table                                                                                   Fri Mar 25 22:32:55 2016

                              _USB_SD_Ptr 0801                               _SSPSTATbits 000FC7  
                  __size_of_PWM_R_setPWM1 004C                    __size_of_PWM_R_setPWM2 004C  
                                      l22 2364                               __CFG_BOR$ON 000000  
                           _USBDeviceInit 0B44                               __CFG_BORV$3 000000  
                      __CFG_FOSC$XTPLL_XT 000000                        _USBCheckHIDRequest 13E0  
                            __CFG_CP0$OFF 000000                              __CFG_CP1$OFF 000000  
                           _SPI_R_putsSPI 22FC      USER_USB_CALLBACK_EVENT_HANDLER@event 0038  
    USER_USB_CALLBACK_EVENT_HANDLER@pdata 003A                                       l304 226C  
                                     l305 226A                                       l244 0BB2  
             __end_of_USBStdGetDscHandler 102E                                       l561 1CDA  
                                     l563 1D24                                       l690 1ED6  
                                     l682 1EB2                                       l691 1EDA  
                                     l684 1EB6                                       _BDT 000400  
                                     l685 1EB8                                       l688 1ED4  
                                     l697 2310                                       l689 1EF0  
                            __CFG_CPB$OFF 000000                                       _PR2 000FCB  
                                     _UIE 000F69                                       _UIR 000F68  
                 i2SPI_R_OpenSPI@bus_mode 002C                                _USBSuspend 22A4  
                    USBStdSetCfgHandler@i 0040                                       prod 000FF3  
                                     wreg 000FE8                            _USBDeviceTasks 0DE2  
                     ?_USBCheckHIDRequest 002C                            _USBDeviceState 0021  
                    i2SYSTEM_Initialize@n 0031                     ??_USBCtrlTrfRxService 002C  
                __size_ofi2_USBDeviceInit 0140                  USBEnableEndpoint@options 0034  
                            __CFG_LVP$OFF 000000                            ?_SPI_R_OpenSPI 007C  
                            __CFG_WDT$OFF 000000                                      l4021 21CA  
                                    l4017 21B8                                      l4035 150C  
                                    l4027 14D8                                      l4115 1D04  
              USBConfigureEndpoint@handle 0032                                      l4231 15D0  
                                    l4047 1572                                      l4063 1EBC  
                                    l4119 1D0E                                      l4241 15F2  
                                    l4129 1D3A                                      l4161 0BBC  
                                    l4145 0B88                                      l4251 1636  
                                    l4067 1EDE                                      l4173 0BEC  
                                    l4149 0B92                                      l4095 22FE  
                                    l4255 164C                                      l4247 1620  
                                    l4263 1BE6                                      l4183 0C5C  
                                    l4177 0BF6                                      l4099 2314  
                                    l4277 1C20                                      l4279 1C2A  
                                    l4287 2358                     ??i2_SYSTEM_Initialize 002F  
                                    _LATA 000F89                                      _LATB 000F8A  
                                    u3107 15E2                                      u3087 1D16  
                                    u3097 1D2E                     ??_USBCtrlTrfTxService 002C  
                                    _UCFG 000F6F                                      _UEP0 000F70  
                                    _UEP1 000F71                                      _UEIE 000F6B  
                                    _UEIR 000F6A                                      _UCON 000F6D  
                                    _Left 0076    USBStdFeatureReqHandler@current_ep_data 0043  
                                    _pDst 0074                                      _main 234A  
                ??i2_USBTransferOnePacket 0030                                      fsr0h 000FEA  
                                    fsr1h 000FE2                                      indf0 000FEF  
                                    fsr0l 000FE9                                      fsr2h 000FDA  
                                    indf1 000FE7                                      fsr1l 000FE1  
                                    indf2 000FDF                                      fsr2l 000FD9  
                         _USBDeviceAttach 2246                                      btemp 0056  
                      __size_of_APP_iddle 00D2                                      pclat 000FFA  
                                    prodh 000FF4                                      prodl 000FF3  
                                    start 0016                             __CFG_IESO$OFF 000000  
                    ??_USBCheckHIDRequest 002C                __end_of_USBCheckStdRequest 13E0  
                  ??_USBCtrlTrfOutHandler 002E                             __CFG_MCLRE$ON 000000  
                            ___param_bank 000010                 ??_USBStdFeatureReqHandler 0040  
                            _USBOutHandle 006A                  ??_USBStdGetStatusHandler 002C  
                          ?_USBDeviceInit 002C                             _PWM_R_OpenPWM 21E2  
                           __CFG_PLLDIV$1 000000                          __end_of_APP_tick 1C52  
                          ?_SPI_R_putsSPI 007C                                     ?_main 002C  
       __size_of_USBCtrlEPServiceComplete 00F0                    __end_of_USBDeviceTasks 0F0E  
               ?_USBCtrlEPServiceComplete 002C                                     i2l244 0D00  
                                   i2l405 2080                                     i2l255 0E0A  
                                   i2l440 195A                                     i2l329 11B0  
                                   i2l265 0E96                                     i2l266 0F0A  
                                   i2l267 0EA6                                     i2l454 1316  
                                   i2l463 1364                                     i2l392 1972  
                                   i2l561 1E34                                     i2l563 1E72  
                                   i2l395 19FA                                     i2l396 1980  
                                   i2l469 08F0                                     i2l397 1984  
                                   i2l488 0AB2                                     i2l690 1F8A  
                                   i2l682 1F68                                     i2l691 1F8E  
                                   i2l684 1F6C                                     i2l685 1F6E  
                                   i2l688 1F88                                     i2l689 1FA2  
                                   _UADDR 000F6E                             __CFG_USBDIV$2 000000  
                                   _TRISA 000F92                                     _TRISB 000F93  
                                   _USTAT 000F6C                             __CFG_PWRT$OFF 000000  
                           __CFG_WRT0$OFF 000000        __size_of_USBCtrlEPAllowStatusStage 00C2  
                           __CFG_WRT1$OFF 000000                            __CFG_EBTR0$OFF 000000  
                          __CFG_FCMEN$OFF 000000                            __CFG_EBTR1$OFF 000000  
                                   _Right 0077           __end_of_USBCtrlEPAllowDataStage 1AA6  
                                   _sd000 08C3                                     _sd001 0809  
                                   _sd002 083D                             __CFG_WRTB$OFF 000000  
          ?_USBIncrement1msInternalTimers 002C                             __CFG_WRTC$OFF 000000  
                __size_ofi2_PWM_R_OpenPWM 002E                  i2SPI_R_OpenSPI@smp_phase 002D  
                          __CFG_EBTRB$OFF 000000                                i2memset@p1 002C  
                           _PWM_R_setPWM1 1FF6                             _PWM_R_setPWM2 1FAA  
                                   tablat 000FF5                                     plusw2 000FDB  
                                   status 000FD8                          __end_ofi2_memset 22FC  
                i2SPI_R_OpenSPI@sync_mode 002E              __size_of_USBStdSetCfgHandler 00DC  
                __size_ofi2_PWM_R_setPWM1 003C                  __size_ofi2_PWM_R_setPWM2 003C  
                         __initialization 2324                              __end_of_main 236E  
                          ?_PWM_R_OpenPWM 002C                 __size_of_USBCtrlEPService 0090  
                       ??i2_SPI_R_OpenSPI 002E                                    ??_main 0085  
                           __activetblptr 000002                           ?_USBDeviceTasks 002C  
                       __end_of_APP_iddle 1664                             _currIddlePwm1 006C  
                           _currIddlePwm2 006E                             _currIddlePwm3 0070  
                           _currIddlePwm4 0072                               ?_USBSuspend 002C  
                         ??_SPI_R_OpenSPI 007E                   __end_of_USBDeviceAttach 2276  
                                  _ADCON0 000FC2                                    _ADCON2 000FC0  
                                  _CCP1M2 007DEA                                    _CCP1M3 007DEB  
                                  _CCP2M2 007DD2                                    _CCP2M3 007DD3  
                          ?_PWM_R_setPWM1 007C                            ?_PWM_R_setPWM2 007C  
                                  _ADRESH 000FC4                                    _ADRESL 000FC3  
                                  _CCPR1L 000FBE                                    _CCPR2L 000FBB  
                  SYSTEM_Initialize@state 0080                                    i2l3001 1DC2  
                                  i2l3003 1DCA                                    i2l3011 1DDE  
                                  i2l3005 1DD2                                    i2l3031 1682  
                                  i2l3007 1DD8                                    i2l3103 126A  
                                  i2l2057 1F4E                                    i2l2049 1F06  
                                  i2l3113 129E                                    i2l3035 168C  
                                  i2l3203 08EC                                    i2l3107 1272  
                                  i2l3045 16B6                                    i2l3053 16EC  
                                  i2l3141 0F30                                    i2l3055 16F4  
                                  i2l3063 172A                                    i2l3223 09A8  
                                  i2l3151 0FBA                                    i2l3071 22EA  
                                  i2l3241 0A32                                    i2l3225 09AA  
                                  i2l3217 0964                                    i2l3137 0F1E  
                                  i2l3129 12E4                                    i2l2169 207E  
                                  i2l3163 1016                                    i2l3067 22DA  
                                  i2l3083 1A5C                                    i2l3413 18DC  
                                  i2l1653 1778                                    i2l3245 0A4C  
                                  i2l3229 09C6                                    i2l3157 100A  
                                  i2l3149 0FB4                                    i2l3333 131E  
                                  i2l3309 11D6                                    i2l3415 18E0  
                                  i2l3271 0B12                                    i2l3255 0A92  
                                  i2l3239 0A18                                    i2l3159 1010  
                                  i2l3175 19A2                                    i2l3335 1324  
                                  i2l3087 1A74                                    i2l3433 1940  
                                  i2l2801 1B08                                    i2l3273 0B1E  
                                  i2l3265 0ACE                                    i2l3257 0A9E  
                                  i2l3185 19E2                                    i2l3345 133C  
                                  i2l3337 132A                                    i2l3427 1920  
                                  i2l3347 1342                                    i2l3363 139C  
                                  i2l2901 1F92                                    i2l3349 1348  
                                  i2l3373 20B2                                    i2l3517 1BB4  
                                  i2l1943 107C                                    i2l2831 215A  
                                  i2l4335 1DF6                                    i2l3359 137E  
                                  i2l3367 2096                                    i2l3519 1BBA  
                                  i2l3631 0D0A                                    i2l3615 0CDC  
                                  i2l1937 105A                                    i2l4337 1E2A  
                                  i2l3289 115A                                    i2l3473 223A  
                                  i2l1955 10D6                                    i2l2827 214C  
                                  i2l2931 141C                                    i2l2923 1400  
                                  i2l3475 223C                                    i2l3643 0D38  
                                  i2l3619 0CE4                                    i2l2941 1440  
                                  i2l3653 0D9C                                    i2l3901 0E68  
                                  i2l1959 10F0                                    i2l2847 1834  
                                  i2l2839 180A                                    i2l2951 1466  
                                  i2l3647 0D40                                    i2l2961 1486  
                                  i2l2945 1450                                    i2l2929 1416  
                                  i2l2859 1890                                    i2l2955 1470  
                                  i2l2939 142E                                    i2l3915 0E9E  
                                  i2l3909 0E8C                                    i2l2967 1490  
                                  i2l2983 1E58                                    i2l3935 0EEA  
                                  i2l3871 0E1C                                    i2l2897 1F72  
                                  i2l3937 0F06                                    i2l3929 0ECC  
                                  i2l3857 0E02                                    i2l3849 0DF6  
                                  i2l2987 1E60                                    i2l3883 0E4A  
                                  i2l2997 1E86                                    i2l3877 0E26  
                                  i2l3895 0E5E           ??_APP_DeviceCustomHIDInitialize 0038  
                                  _TMR2ON 007E52                                    _SSPBUF 000FC9  
                i2USBTransferOnePacket@ep 0030                         ??i2_USBDeviceInit 0034  
         __size_ofi2_USBTransferOnePacket 00BA                            __CFG_VREGEN$ON 000000  
                       _shortPacketStatus 0028                            __CFG_XINST$OFF 000000  
                         USBDeviceTasks@i 0047               USBStdFeatureReqHandler@pUEP 0041  
                USBTransferOnePacket@data 007D                USBCtrlTrfInHandler@lastDTS 002D  
                         ??_USBDeviceInit 0084                            __CFG_STVREN$ON 000000  
                         ??_SPI_R_putsSPI 007E                         _USBEnableEndpoint 213C  
         __size_of_USBStdGetStatusHandler 00AA                                    _memcpy 2084  
                                  _memset 21AE                                    clear_0 232A  
                                  clear_1 2336                        ?_USBEnableEndpoint 0034  
           __size_of_USBTransferOnePacket 00D8                              __mediumconst 0000  
                                  tblptrh 000FF7                                    tblptrl 000FF6  
                                  tblptru 000FF8                       ??_USBEnableEndpoint 0035  
                             _CtrlTrfData 000428                      _controlTransferState 0026  
                       _SYSTEM_Initialize 1CD4                                __accesstop 0060  
                 __end_of__initialization 233C                         ??i2_PWM_R_OpenPWM 002F  
                         __CFG_PBADEN$OFF 000000                                 ?_APP_tick 002C  
                      ?_SYSTEM_Initialize 002C                             ___rparam_used 000001  
                __size_of_USBStallHandler 0042                        i2PWM_R_setPWM1@val 002C  
                      i2PWM_R_setPWM2@val 002C                       __size_of_USBSuspend 002C  
                         ??_PWM_R_OpenPWM 007F                            __pcstackCOMRAM 002C  
               __end_of_USBEnableEndpoint 2178                             __end_of_sd000 08C7  
                           __end_of_sd001 083D                             __end_of_sd002 086B  
                     ??_SYSTEM_Initialize 007F          __size_of_USBCtrlEPAllowDataStage 0098  
                         _active_protocol 007A             __size_of_USBConfigureEndpoint 0094  
             __end_of_USBCtrlTrfInHandler 1964                         ??i2_PWM_R_setPWM1 002E  
                       ??i2_PWM_R_setPWM2 002E                    i2_USBTransferOnePacket 17F4  
                               ?i2_memset 002C                           ??_PWM_R_setPWM1 007E  
                         ??_PWM_R_setPWM2 007E                  ??_USBCtrlTrfSetupHandler 0046  
                 _USBTicksSinceSuspendEnd 0025                          ?_USBDeviceAttach 002C  
               __end_of_SYSTEM_Initialize 1D4E                    _USBStdGetStatusHandler 1964  
                              __pbssBANK0 0060                                ??_APP_tick 0083  
             __size_of_USBWakeFromSuspend 0032                               _pBDTEntryIn 000F  
        __end_of_USBCtrlEPServiceComplete 122A     __end_of_APP_DeviceCustomHIDInitialize 21AE  
  __size_of_APP_DeviceCustomHIDInitialize 0036             _APP_DeviceCustomHIDInitialize 2178  
                    USBCtrlTrfRxService@i 002C                                   ?_memcpy 002C  
                                 ?_memset 007C                                _device_dsc 08B1  
                        _USBCtrlEPService 1B3A                                _ep_data_in 0013  
                                 _T2CKPS0 007E50                                   _T2CKPS1 007E51  
             __end_of_USBCtrlTrfRxService 113A                        _USBCheckStdRequest 1306  
                       _configDescriptor1 086B               __end_ofi2_SYSTEM_Initialize 1E98  
                              ??i2_memset 0032               __end_of_USBCtrlTrfTxService 1732  
                     _USBStdSetCfgHandler 122A                                   _SSPCON1 000FC6  
                     ?_USBCheckStdRequest 002C              __size_of_USBStdGetDscHandler 0120  
                                 _UIEbits 000F69                                   _SSPSTAT 000FC7  
                                 _UIRbits 000F68                           i2_SPI_R_OpenSPI 1F54  
                                 __Hparam 0000           ??_USBIncrement1msInternalTimers 002C  
                    ?_USBStdSetCfgHandler 002C               __size_of_USBCheckHIDRequest 00DA  
                                 __Lparam 0000                         __end_of_hid_rpt01 08B1  
              __size_of_USBEnableEndpoint 003C                      ??_USBCheckStdRequest 0046  
           __size_of_USBCtrlTrfOutHandler 005C                          _ToSendDataBuffer 000540  
                        ??_USBDeviceTasks 0047                         ??_USBStallHandler 002C  
                            __psmallconst 0800                                   __pcinit 2324  
                         __size_of_memcpy 0040                           __size_of_memset 0034  
               __end_of_configDescriptor1 0894                                   __ramtop 0800  
                                 __ptext0 234A                                   __ptext1 0B44  
                                 __ptext2 21AE                                   __ptext3 2246  
                                 __ptext4 1CD4                                   __ptext5 1E98  
                                 __ptext6 21E2                                   __ptext7 1BCA  
                                 __ptext8 14BA                                   __ptext9 1592  
                                 _inPipes 0009               _USBDeferOUTDataStagePackets 001F  
                            ??_USBSuspend 0040                           i2_USBDeviceInit 0CA2  
                        i2USBDeviceInit@i 0034                                 _APP_iddle 1592  
                      __end_of_USB_CD_Ptr 0809                __size_of_SYSTEM_Initialize 007A  
         __size_of_USBCtrlTrfSetupHandler 0082                            __pintcode_body 1D4E  
                    end_of_initialization 233C                        __end_of_USB_SD_Ptr 0807  
                                 memcpy@d 0032                                   memcpy@n 0030  
                                 memcpy@s 0034                       _pBDTEntryEP0OutNext 0019  
                                 memset@c 007E                                   memset@n 0080  
                                 memset@p 0082                             __Lmediumconst 0000  
                                 int_func 1D4E                           _USB1msTickCount 0060  
                ?_USBStdFeatureReqHandler 002C                     ??_USBStdSetCfgHandler 0040  
                      __end_of_USBSuspend 22D0                   _USBCtrlEPAllowDataStage 1A0E  
                                 postdec2 000FDD                                   postinc0 000FEE  
                                 postinc2 000FDE                  _USBCtrlEPServiceComplete 113A  
              _USBStatusStageEnabledFlag1 0022                _USBStatusStageEnabledFlag2 0023  
                      USBEnableEndpoint@p 0035                           i2_PWM_R_OpenPWM 2276  
                               _TRISAbits 000F92                                 _TRISBbits 000F93  
                               _TRISCbits 000F94                        _ReceivedDataBuffer 000500  
                      _BothEP0OutUOWNsSet 001B                                ?_APP_iddle 002C  
                   __end_of_SPI_R_OpenSPI 1EF8                 USBConfigureEndpoint@EPNum 0031  
              ?_USBCtrlEPAllowStatusStage 002C       USER_USB_CALLBACK_EVENT_HANDLER@size 003C  
                 __end_ofi2_SPI_R_OpenSPI 1FAA                                 _USTATcopy 002B  
            __end_of_USBTransferOnePacket 1592                               _CCP1CONbits 000FBD  
                             _CCP2CONbits 000FBA                           i2_PWM_R_setPWM1 2100  
                         i2_PWM_R_setPWM2 20C4                         __size_of_APP_tick 0088  
                              APP_iddle@n 0080                    _USBCtrlTrfSetupHandler 1C52  
                 ?i2_USBTransferOnePacket 002C                     __end_of_USBDeviceInit 0CA2  
   __end_of_USBIncrement1msInternalTimers 238E    __size_of_USBIncrement1msInternalTimers 0020  
           _USBIncrement1msInternalTimers 236E                     __end_of_SPI_R_putsSPI 2324  
                 __end_ofi2_USBDeviceInit 0DE2                                 i2memset@c 002E  
                               i2memset@n 0030                                 i2memset@p 0032  
                          __end_of_memcpy 20C4                            __end_of_memset 21E2  
                       _USBBusIsSuspended 001D                                 _LeftRight 0078  
                     start_initialization 2324                   ?_USBStdGetStatusHandler 002C  
                i2SYSTEM_Initialize@state 0030             USBCtrlTrfRxService@byteToRead 002D  
                       __size_ofi2_memset 002C              __end_of_USBConfigureEndpoint 1B3A  
         __end_of_USBStdFeatureReqHandler 0B44         __end_of_USBCtrlEPAllowStatusStage 17F4  
                __end_of_USBCtrlEPService 1BCA                 ??_USBCtrlEPAllowDataStage 002D  
                          USBDeviceInit@i 0084                    _pBDTEntryEP0OutCurrent 0017  
                 USBTransferOnePacket@dir 007C                   USBTransferOnePacket@len 007F  
          __end_ofi2_USBTransferOnePacket 18AE                     __end_of_PWM_R_OpenPWM 2214  
                     _USBStdGetDscHandler 0F0E                          __CFG_LPT1OSC$OFF 000000  
                                ??_memcpy 0032                   __end_ofi2_PWM_R_OpenPWM 22A4  
                                ??_memset 0082                    _USBActiveConfiguration 0029  
          __end_of_USBStdGetStatusHandler 1A0E                               __pbssCOMRAM 0001  
                           __pcstackBANK0 007C              __size_of_USBCtrlTrfInHandler 00B6  
                      SYSTEM_Initialize@n 0081                               ??_APP_iddle 007F  
                   __end_of_PWM_R_setPWM1 2042                     __end_of_PWM_R_setPWM2 1FF6  
                    ?_USBStdGetDscHandler 002C                   __end_ofi2_PWM_R_setPWM1 213C  
                 __end_ofi2_PWM_R_setPWM2 2100                          ?i2_SPI_R_OpenSPI 002C  
              __end_of_USBWakeFromSuspend 2246                           _USBStallHandler 2042  
                            _pBDTEntryOut 0064                  __size_of_USBDeviceAttach 0030  
                               __pintcode 0008                                 _hid_rpt01 0894  
                               _idle_rate 007B                          ?i2_USBDeviceInit 002C  
                    _USBTransferOnePacket 14BA                               __smallconst 0800  
            __end_of_USBCtrlTrfOutHandler 1F54                     ??_USBStdGetDscHandler 002C  
                             _ep_data_out 0015              __size_of_USBCtrlTrfRxService 010C  
           USBConfigureEndpoint@direction 002C                    SPI_R_OpenSPI@smp_phase 007D  
            __size_ofi2_SYSTEM_Initialize 0068              __size_of_USBCtrlTrfTxService 00CE  
                                _APP_tick 1BCA                                  _LATBbits 000F8A  
              __end_of_USBCheckHIDRequest 14BA                ??_USBCtrlEPServiceComplete 002D  
                                _IPR2bits 000FA2                                  _PIE2bits 000FA0  
                                i2u311_47 1E66                                  i2u312_47 1E7A  
                                i2u170_40 16DE                                  i2u170_47 16D4  
                                i2u172_40 171C                                  i2u172_47 1712  
                                i2u182_40 0F82                                  i2u182_47 0F78  
                                i2u183_40 0FB0                                  i2u183_47 0FA6  
                                i2u185_40 1000                                  _PIR1bits 000F9E  
                                i2u185_47 0FF6                                  _PIR2bits 000FA1  
                                _RCONbits 000FD0                    SPI_R_OpenSPI@sync_mode 007E  
                        __CFG_WDTPS$32768 000000                                  _UEP0bits 000F70  
              _USBDeferINDataStagePackets 001E               __size_of_USBCheckStdRequest 00DA  
                                _UCONbits 000F6D                      _USBConfigureEndpoint 1AA6  
                        ?i2_PWM_R_OpenPWM 002C          __size_of_USBStdFeatureReqHandler 027C  
                              _ADCON0bits 000FC2                                _ADCON1bits 000FC1  
                              _ADCON2bits 000FC0                     ?_USBTransferOnePacket 007C  
                       _SYS_InterruptHigh 0008                              _RemoteWakeup 001C  
                                i2_memset 22D0                        ?_SYS_InterruptHigh 002C  
                 __end_of_USBStallHandler 2084               ??_USBCtrlEPAllowStatusStage 002C  
             __end_of_USBStdSetCfgHandler 1306                          ?i2_PWM_R_setPWM1 002C  
                        ?i2_PWM_R_setPWM2 002C                       ??_SYS_InterruptHigh 0048  
                      __end_of_device_dsc 08C3                   ?_USBCtrlTrfSetupHandler 002C  
                 USBStdGetStatusHandler@p 002D                                  __Hrparam 0000  
                                __Lrparam 0000                    USBTransferOnePacket@ep 0080  
                                _SetupPkt 000420                     ?_USBConfigureEndpoint 002C  
                      SPI_R_putsSPI@wrptr 007C                         ??_USBDeviceAttach 007C  
               __end_of_SYS_InterruptHigh 1DC0                     SPI_R_OpenSPI@bus_mode 007C  
                 __size_of_USBDeviceTasks 012C                                  __ptext10 22FC  
                                __ptext11 1FAA                                  __ptext20 1B3A  
                                __ptext12 1FF6                                  __ptext21 2084  
                                __ptext30 08C8                                  __ptext22 1C52  
                                __ptext14 0DE2                                  __ptext31 1DC0  
                                __ptext23 113A                                  __ptext15 0CA2  
                                __ptext40 213C                                  __ptext32 1E30  
                                __ptext24 1A0E                                  __ptext16 2214  
                                __ptext41 1AA6                                  __ptext33 1F54  
                                __ptext25 1306                                  __ptext17 22A4  
                                __ptext42 1EF8                                  __ptext34 2276  
                                __ptext26 122A                                  __ptext18 2042  
                                __ptext43 102E                                  __ptext35 20C4  
                                __ptext27 22D0                                  __ptext19 236E  
                                __ptext44 1732                                  __ptext36 2100  
                                __ptext28 1964                                  __ptext45 18AE  
                                __ptext37 13E0                                  __ptext29 0F0E  
                                __ptext46 1664                                  __ptext38 2178  
                                __ptext39 17F4            __end_of_USBCtrlTrfSetupHandler 1CD4  
                           __size_of_main 0024                         ?_USBCtrlEPService 002C  
                      ??_USBCtrlEPService 0046                       _USBCtrlTrfInHandler 18AE  
                                _outPipes 0001                      _USBCtrlTrfOutHandler 1EF8  
                                int$flags 0056                 _USBCtrlEPAllowStatusStage 1732  
                  __size_of_SPI_R_OpenSPI 0060                    ??_USBTransferOnePacket 0080  
          ?_APP_DeviceCustomHIDInitialize 002C                     __CFG_CPUDIV$OSC1_PLL2 000000  
               _USBDeferStatusStagePacket 0020                                _INTCONbits 000FF2  
                    ?_USBCtrlTrfInHandler 002C                                  memcpy@d1 002C  
                                memcpy@s1 002E             USBCtrlTrfTxService@byteToSend 002C  
                                memset@p1 007C                          ?_USBStallHandler 002C  
                USBStdFeatureReqHandler@p 0044                                  intlevel2 0000  
                        PWM_R_setPWM1@val 007C                          PWM_R_setPWM2@val 007C  
                  __size_of_USBDeviceInit 015E   __end_of_USER_USB_CALLBACK_EVENT_HANDLER 1E30  
__size_of_USER_USB_CALLBACK_EVENT_HANDLER 0070         ??_USER_USB_CALLBACK_EVENT_HANDLER 003E  
        ?_USER_USB_CALLBACK_EVENT_HANDLER 0038           _USER_USB_CALLBACK_EVENT_HANDLER 1DC0  
            i2USBTransferOnePacket@handle 0031                    __size_of_SPI_R_putsSPI 0028  
              i2USBTransferOnePacket@data 002D                    ??_USBConfigureEndpoint 002D  
                   ?_USBCtrlTrfOutHandler 002C                       _USBCtrlTrfRxService 102E  
                      _USBWakeFromSuspend 2214                   _USBStdFeatureReqHandler 08C8  
                     i2_SYSTEM_Initialize 1E30                       _USBCtrlTrfTxService 1664  
              __size_of_SYS_InterruptHigh 1DB8                       ?_USBWakeFromSuspend 002C  
                   ??_USBCtrlTrfInHandler 002D                     _USBAlternateInterface 002A  
               i2USBTransferOnePacket@dir 002C                 i2USBTransferOnePacket@len 002F  
                             _SSPCON1bits 000FC6                       USBEnableEndpoint@ep 0037  
                         _endpoint_number 0027                      ?_USBCtrlTrfRxService 002C  
                           _SPI_R_OpenSPI 1E98                    __size_of_PWM_R_OpenPWM 0032  
                    ?i2_SYSTEM_Initialize 002C                  ?_USBCtrlEPAllowDataStage 002C  
                    ?_USBCtrlTrfTxService 002C              _USBStatusStageTimeoutCounter 0024  
                    ??_USBWakeFromSuspend 0040                USBTransferOnePacket@handle 0081  
                              _USB_CD_Ptr 0807                               _USBInHandle 0068  
                __size_ofi2_SPI_R_OpenSPI 0056  
